MP2COD 4.00, COFF to COD File Converter
Copyright (c) 2005 Microchip Technology Inc.
Listing File Generated: Tue Jul 11 22:25:27 2017


Address  Value    Disassembly              Source                                                                           File
-------  -------  -----------------------  -------------------------------------------------------------------------------  -----
                                           /* $Id: c018i.c,v 1.3 2004/07/30 17:28:43 ConnerJ Exp $ */                       C:\MCC18\src\traditional\startup\c018i.c
                                                                                                                            C:\MCC18\src\traditional\startup\c018i.c
                                           /* Copyright (c)1999 Microchip Technology */                                     C:\MCC18\src\traditional\startup\c018i.c
                                                                                                                            C:\MCC18\src\traditional\startup\c018i.c
                                           /* MPLAB-C18 startup code, including initialized data */                         C:\MCC18\src\traditional\startup\c018i.c
                                                                                                                            C:\MCC18\src\traditional\startup\c018i.c
                                           /* external reference to the user's main routine */                              C:\MCC18\src\traditional\startup\c018i.c
                                           extern void main (void);                                                         C:\MCC18\src\traditional\startup\c018i.c
                                           /* prototype for the startup function */                                         C:\MCC18\src\traditional\startup\c018i.c
                                           void _entry (void);                                                              C:\MCC18\src\traditional\startup\c018i.c
                                           void _startup (void);                                                            C:\MCC18\src\traditional\startup\c018i.c
                                           /* prototype for the initialized data setup */                                   C:\MCC18\src\traditional\startup\c018i.c
                                           void _do_cinit (void);                                                           C:\MCC18\src\traditional\startup\c018i.c
                                                                                                                            C:\MCC18\src\traditional\startup\c018i.c
                                           extern volatile near unsigned long short TBLPTR;                                 C:\MCC18\src\traditional\startup\c018i.c
                                           extern near unsigned FSR0;                                                       C:\MCC18\src\traditional\startup\c018i.c
                                           extern near char FPFLAGS;                                                        C:\MCC18\src\traditional\startup\c018i.c
                                           #define RND 6                                                                    C:\MCC18\src\traditional\startup\c018i.c
                                                                                                                            C:\MCC18\src\traditional\startup\c018i.c
                                           #pragma code _entry_scn=0x000000                                                 C:\MCC18\src\traditional\startup\c018i.c
                                           void                                                                             C:\MCC18\src\traditional\startup\c018i.c
                                           _entry (void)                                                                    C:\MCC18\src\traditional\startup\c018i.c
                                           {                                                                                C:\MCC18\src\traditional\startup\c018i.c
000000   efcd     GOTO      0x59a          _asm goto _startup _endasm                                                       C:\MCC18\src\traditional\startup\c018i.c
000002   f002                                                                                                               
                                                                                                                            C:\MCC18\src\traditional\startup\c018i.c
000004   0012     RETURN    0x0            }                                                                                C:\MCC18\src\traditional\startup\c018i.c
                                           #pragma code _startup_scn                                                        C:\MCC18\src\traditional\startup\c018i.c
                                           void                                                                             C:\MCC18\src\traditional\startup\c018i.c
                                           _startup (void)                                                                  C:\MCC18\src\traditional\startup\c018i.c
                                           {                                                                                C:\MCC18\src\traditional\startup\c018i.c
                                             _asm                                                                           C:\MCC18\src\traditional\startup\c018i.c
                                               // Initialize the stack pointer                                              C:\MCC18\src\traditional\startup\c018i.c
00059a   ee13     LFSR      0x1,0x300          lfsr 1, _stack                                                               C:\MCC18\src\traditional\startup\c018i.c
00059c   f000                                                                                                               
00059e   ee23     LFSR      0x2,0x300          lfsr 2, _stack                                                               C:\MCC18\src\traditional\startup\c018i.c
0005a0   f000                                                                                                               
                                                                                                                            C:\MCC18\src\traditional\startup\c018i.c
0005a2   6af8     CLRF      0xf8,0x0           clrf TBLPTRU, 0 // 1st silicon doesn't do this on POR                        C:\MCC18\src\traditional\startup\c018i.c
                                                                                                                            C:\MCC18\src\traditional\startup\c018i.c
0005a4   9c0f     BCF       0xf,0x6,0x0        bcf FPFLAGS,RND,0 // Initialize rounding flag for floating point libs        C:\MCC18\src\traditional\startup\c018i.c
                                                                                                                            C:\MCC18\src\traditional\startup\c018i.c
                                               _endasm                                                                      C:\MCC18\src\traditional\startup\c018i.c
0005a6   ec51     CALL      0x4a2,0x0          _do_cinit ();                                                                C:\MCC18\src\traditional\startup\c018i.c
0005a8   f002                                                                                                               
                                                                                                                            C:\MCC18\src\traditional\startup\c018i.c
                                           loop:                                                                            C:\MCC18\src\traditional\startup\c018i.c
                                                                                                                            C:\MCC18\src\traditional\startup\c018i.c
                                             // Call the user's main routine                                                C:\MCC18\src\traditional\startup\c018i.c
0005aa   ec40     CALL      0x280,0x0        main ();                                                                       C:\MCC18\src\traditional\startup\c018i.c
0005ac   f001                                                                                                               
                                                                                                                            C:\MCC18\src\traditional\startup\c018i.c
0005ae   d7fd     BRA       0x5aa            goto loop;                                                                     C:\MCC18\src\traditional\startup\c018i.c
0005b0   0012     RETURN    0x0            }                               /* end _startup() */                             C:\MCC18\src\traditional\startup\c018i.c
                                                                                                                            C:\MCC18\src\traditional\startup\c018i.c
                                           /* MPLAB-C18 initialized data memory support */                                  C:\MCC18\src\traditional\startup\c018i.c
                                           /* The linker will populate the _cinit table */                                  C:\MCC18\src\traditional\startup\c018i.c
                                           extern far rom struct                                                            C:\MCC18\src\traditional\startup\c018i.c
                                           {                                                                                C:\MCC18\src\traditional\startup\c018i.c
                                             unsigned short num_init;                                                       C:\MCC18\src\traditional\startup\c018i.c
                                             struct _init_entry                                                             C:\MCC18\src\traditional\startup\c018i.c
                                             {                                                                              C:\MCC18\src\traditional\startup\c018i.c
                                               unsigned long from;                                                          C:\MCC18\src\traditional\startup\c018i.c
                                               unsigned long to;                                                            C:\MCC18\src\traditional\startup\c018i.c
                                               unsigned long size;                                                          C:\MCC18\src\traditional\startup\c018i.c
                                             }                                                                              C:\MCC18\src\traditional\startup\c018i.c
                                             entries[];                                                                     C:\MCC18\src\traditional\startup\c018i.c
                                           }                                                                                C:\MCC18\src\traditional\startup\c018i.c
                                           _cinit;                                                                          C:\MCC18\src\traditional\startup\c018i.c
                                                                                                                            C:\MCC18\src\traditional\startup\c018i.c
                                           #pragma code _cinit_scn                                                          C:\MCC18\src\traditional\startup\c018i.c
                                           void                                                                             C:\MCC18\src\traditional\startup\c018i.c
                                           _do_cinit (void)                                                                 C:\MCC18\src\traditional\startup\c018i.c
                                           {                                                                                C:\MCC18\src\traditional\startup\c018i.c
                                             /* we'll make the assumption in the following code that these statics          C:\MCC18\src\traditional\startup\c018i.c
                                              * will be allocated into the same bank.                                       C:\MCC18\src\traditional\startup\c018i.c
                                              */                                                                            C:\MCC18\src\traditional\startup\c018i.c
                                             static short long prom;                                                        C:\MCC18\src\traditional\startup\c018i.c
                                             static unsigned short curr_byte;                                               C:\MCC18\src\traditional\startup\c018i.c
                                             static unsigned short curr_entry;                                              C:\MCC18\src\traditional\startup\c018i.c
                                             static short long data_ptr;                                                    C:\MCC18\src\traditional\startup\c018i.c
                                                                                                                            C:\MCC18\src\traditional\startup\c018i.c
                                             // Initialized data...                                                         C:\MCC18\src\traditional\startup\c018i.c
0004a2   0e2a     MOVLW     0x2a             TBLPTR = (short long)&_cinit;                                                  C:\MCC18\src\traditional\startup\c018i.c
0004a4   6ef6     MOVWF     0xf6,0x0                                                                                        
0004a6   0e00     MOVLW     0x0                                                                                             
0004a8   6ef7     MOVWF     0xf7,0x0                                                                                        
0004aa   0e00     MOVLW     0x0                                                                                             
0004ac   6ef8     MOVWF     0xf8,0x0                                                                                        
                                             _asm                                                                           C:\MCC18\src\traditional\startup\c018i.c
0004ae   0100     MOVLB     0x0                movlb data_ptr                                                               C:\MCC18\src\traditional\startup\c018i.c
0004b0   0009     TBLRDPOSTINC                 tblrdpostinc                                                                 C:\MCC18\src\traditional\startup\c018i.c
0004b2   50f5     MOVF      0xf5,0x0,0x0       movf TABLAT, 0, 0                                                            C:\MCC18\src\traditional\startup\c018i.c
0004b4   6f65     MOVWF     0x65,0x1           movwf curr_entry, 1                                                          C:\MCC18\src\traditional\startup\c018i.c
0004b6   0009     TBLRDPOSTINC                 tblrdpostinc                                                                 C:\MCC18\src\traditional\startup\c018i.c
0004b8   50f5     MOVF      0xf5,0x0,0x0       movf TABLAT, 0, 0                                                            C:\MCC18\src\traditional\startup\c018i.c
0004ba   6f66     MOVWF     0x66,0x1           movwf curr_entry+1, 1                                                        C:\MCC18\src\traditional\startup\c018i.c
                                             _endasm                                                                        C:\MCC18\src\traditional\startup\c018i.c
                                               //while (curr_entry)                                                         C:\MCC18\src\traditional\startup\c018i.c
                                               //{                                                                          C:\MCC18\src\traditional\startup\c018i.c
                                               test:                                                                        C:\MCC18\src\traditional\startup\c018i.c
                                               _asm                                                                         C:\MCC18\src\traditional\startup\c018i.c
0004bc   e103     BNZ       0x4c4               bnz 3                                                                       C:\MCC18\src\traditional\startup\c018i.c
0004be   6765     TSTFSZ    0x65,0x1           tstfsz curr_entry, 1                                                         C:\MCC18\src\traditional\startup\c018i.c
0004c0   d001     BRA       0x4c4              bra 1                                                                        C:\MCC18\src\traditional\startup\c018i.c
                                               _endasm                                                                      C:\MCC18\src\traditional\startup\c018i.c
0004c2   d03d     BRA       0x53e              goto done;                                                                   C:\MCC18\src\traditional\startup\c018i.c
                                                 /* Count down so we only have to look up the data in _cinit                C:\MCC18\src\traditional\startup\c018i.c
                                                  * once.                                                                   C:\MCC18\src\traditional\startup\c018i.c
                                                  *                                                                         C:\MCC18\src\traditional\startup\c018i.c
                                                  * At this point we know that TBLPTR points to the top of the current      C:\MCC18\src\traditional\startup\c018i.c
                                                  * entry in _cinit, so we can just start reading the from, to, and         C:\MCC18\src\traditional\startup\c018i.c
                                                  * size values.                                                            C:\MCC18\src\traditional\startup\c018i.c
                                                  */                                                                        C:\MCC18\src\traditional\startup\c018i.c
                                                 _asm                                                                       C:\MCC18\src\traditional\startup\c018i.c
                                           	/* read the source address */                                                   C:\MCC18\src\traditional\startup\c018i.c
0004c4   0009     TBLRDPOSTINC             	tblrdpostinc                                                                    C:\MCC18\src\traditional\startup\c018i.c
0004c6   50f5     MOVF      0xf5,0x0,0x0   	movf TABLAT, 0, 0                                                               C:\MCC18\src\traditional\startup\c018i.c
0004c8   6f60     MOVWF     0x60,0x1       	movwf prom, 1                                                                   C:\MCC18\src\traditional\startup\c018i.c
0004ca   0009     TBLRDPOSTINC             	tblrdpostinc                                                                    C:\MCC18\src\traditional\startup\c018i.c
0004cc   50f5     MOVF      0xf5,0x0,0x0   	movf TABLAT, 0, 0                                                               C:\MCC18\src\traditional\startup\c018i.c
0004ce   6f61     MOVWF     0x61,0x1       	movwf prom+1, 1                                                                 C:\MCC18\src\traditional\startup\c018i.c
0004d0   0009     TBLRDPOSTINC             	tblrdpostinc                                                                    C:\MCC18\src\traditional\startup\c018i.c
0004d2   50f5     MOVF      0xf5,0x0,0x0   	movf TABLAT, 0, 0                                                               C:\MCC18\src\traditional\startup\c018i.c
0004d4   6f62     MOVWF     0x62,0x1       	movwf prom+2, 1                                                                 C:\MCC18\src\traditional\startup\c018i.c
                                           	/* skip a byte since it's stored as a 32bit int */                              C:\MCC18\src\traditional\startup\c018i.c
0004d6   0009     TBLRDPOSTINC             	tblrdpostinc                                                                    C:\MCC18\src\traditional\startup\c018i.c
                                           	/* read the destination address directly into FSR0 */                           C:\MCC18\src\traditional\startup\c018i.c
0004d8   0009     TBLRDPOSTINC             	tblrdpostinc                                                                    C:\MCC18\src\traditional\startup\c018i.c
0004da   50f5     MOVF      0xf5,0x0,0x0   	movf TABLAT, 0, 0                                                               C:\MCC18\src\traditional\startup\c018i.c
0004dc   6ee9     MOVWF     0xe9,0x0       	movwf FSR0L, 0                                                                  C:\MCC18\src\traditional\startup\c018i.c
0004de   0009     TBLRDPOSTINC             	tblrdpostinc                                                                    C:\MCC18\src\traditional\startup\c018i.c
0004e0   50f5     MOVF      0xf5,0x0,0x0   	movf TABLAT, 0, 0                                                               C:\MCC18\src\traditional\startup\c018i.c
0004e2   6eea     MOVWF     0xea,0x0       	movwf FSR0H, 0                                                                  C:\MCC18\src\traditional\startup\c018i.c
                                           	/* skip two bytes since it's stored as a 32bit int */                           C:\MCC18\src\traditional\startup\c018i.c
0004e4   0009     TBLRDPOSTINC             	tblrdpostinc                                                                    C:\MCC18\src\traditional\startup\c018i.c
0004e6   0009     TBLRDPOSTINC             	tblrdpostinc                                                                    C:\MCC18\src\traditional\startup\c018i.c
                                           	/* read the destination address directly into FSR0 */                           C:\MCC18\src\traditional\startup\c018i.c
0004e8   0009     TBLRDPOSTINC             	tblrdpostinc                                                                    C:\MCC18\src\traditional\startup\c018i.c
0004ea   50f5     MOVF      0xf5,0x0,0x0   	movf TABLAT, 0, 0                                                               C:\MCC18\src\traditional\startup\c018i.c
0004ec   6f63     MOVWF     0x63,0x1       	movwf curr_byte, 1                                                              C:\MCC18\src\traditional\startup\c018i.c
0004ee   0009     TBLRDPOSTINC             	tblrdpostinc                                                                    C:\MCC18\src\traditional\startup\c018i.c
0004f0   50f5     MOVF      0xf5,0x0,0x0   	movf TABLAT, 0, 0                                                               C:\MCC18\src\traditional\startup\c018i.c
0004f2   6f64     MOVWF     0x64,0x1       	movwf curr_byte+1, 1                                                            C:\MCC18\src\traditional\startup\c018i.c
                                           	/* skip two bytes since it's stored as a 32bit int */                           C:\MCC18\src\traditional\startup\c018i.c
0004f4   0009     TBLRDPOSTINC             	tblrdpostinc                                                                    C:\MCC18\src\traditional\startup\c018i.c
0004f6   0009     TBLRDPOSTINC             	tblrdpostinc                                                                    C:\MCC18\src\traditional\startup\c018i.c
                                                 _endasm                                                                    C:\MCC18\src\traditional\startup\c018i.c
                                                 //prom = data_ptr->from;                                                   C:\MCC18\src\traditional\startup\c018i.c
                                                 //FSR0 = data_ptr->to;                                                     C:\MCC18\src\traditional\startup\c018i.c
                                                 //curr_byte = (unsigned short) data_ptr->size;                             C:\MCC18\src\traditional\startup\c018i.c
                                                 /* the table pointer now points to the next entry. Save it                 C:\MCC18\src\traditional\startup\c018i.c
                                                  * off since we'll be using the table pointer to do the copying            C:\MCC18\src\traditional\startup\c018i.c
                                                  * for the entry.                                                          C:\MCC18\src\traditional\startup\c018i.c
                                                  */                                                                        C:\MCC18\src\traditional\startup\c018i.c
0004f8   cff6     MOVFF     0xff6,0x67           data_ptr = TBLPTR;                                                         C:\MCC18\src\traditional\startup\c018i.c
0004fa   f067                                                                                                               
0004fc   cff7     MOVFF     0xff7,0x68                                                                                      
0004fe   f068                                                                                                               
000500   cff8     MOVFF     0xff8,0x69                                                                                      
000502   f069                                                                                                               
                                                                                                                            C:\MCC18\src\traditional\startup\c018i.c
                                                 /* now assign the source address to the table pointer */                   C:\MCC18\src\traditional\startup\c018i.c
000504   c060     MOVFF     0x60,0xff6           TBLPTR = prom;                                                             C:\MCC18\src\traditional\startup\c018i.c
000506   fff6                                                                                                               
000508   c061     MOVFF     0x61,0xff7                                                                                      
00050a   fff7                                                                                                               
00050c   c062     MOVFF     0x62,0xff8                                                                                      
00050e   fff8                                                                                                               
                                                                                                                            C:\MCC18\src\traditional\startup\c018i.c
                                                 /* do the copy loop */                                                     C:\MCC18\src\traditional\startup\c018i.c
                                                 _asm                                                                       C:\MCC18\src\traditional\startup\c018i.c
                                                   // determine if we have any more bytes to copy                           C:\MCC18\src\traditional\startup\c018i.c
000510   0100     MOVLB     0x0            	movlb curr_byte                                                                 C:\MCC18\src\traditional\startup\c018i.c
000512   5363     MOVF      0x63,0x1,0x1   	movf curr_byte, 1, 1                                                            C:\MCC18\src\traditional\startup\c018i.c
                                           copy_loop:                                                                       C:\MCC18\src\traditional\startup\c018i.c
000514   e102     BNZ       0x51a          	bnz 2 // copy_one_byte                                                          C:\MCC18\src\traditional\startup\c018i.c
000516   5364     MOVF      0x64,0x1,0x1   	movf curr_byte + 1, 1, 1                                                        C:\MCC18\src\traditional\startup\c018i.c
000518   e007     BZ        0x528          	bz 7 // done_copying                                                            C:\MCC18\src\traditional\startup\c018i.c
                                                                                                                            C:\MCC18\src\traditional\startup\c018i.c
                                           copy_one_byte:                                                                   C:\MCC18\src\traditional\startup\c018i.c
00051a   0009     TBLRDPOSTINC             	tblrdpostinc                                                                    C:\MCC18\src\traditional\startup\c018i.c
00051c   50f5     MOVF      0xf5,0x0,0x0   	movf TABLAT, 0, 0                                                               C:\MCC18\src\traditional\startup\c018i.c
00051e   6eee     MOVWF     0xee,0x0       	movwf POSTINC0, 0                                                               C:\MCC18\src\traditional\startup\c018i.c
                                                                                                                            C:\MCC18\src\traditional\startup\c018i.c
                                           	// decrement byte counter                                                       C:\MCC18\src\traditional\startup\c018i.c
000520   0763     DECF      0x63,0x1,0x1   	decf curr_byte, 1, 1                                                            C:\MCC18\src\traditional\startup\c018i.c
000522   e2f8     BC        0x514          	bc -8 // copy_loop                                                              C:\MCC18\src\traditional\startup\c018i.c
000524   0764     DECF      0x64,0x1,0x1           decf curr_byte + 1, 1, 1                                                 C:\MCC18\src\traditional\startup\c018i.c
000526   d7f9     BRA       0x51a          	bra -7 // copy_one_byte                                                         C:\MCC18\src\traditional\startup\c018i.c
                                                                                                                            C:\MCC18\src\traditional\startup\c018i.c
                                           done_copying:                                                                    C:\MCC18\src\traditional\startup\c018i.c
                                                                                                                            C:\MCC18\src\traditional\startup\c018i.c
                                                 _endasm                                                                    C:\MCC18\src\traditional\startup\c018i.c
                                                 /* restore the table pointer for the next entry */                         C:\MCC18\src\traditional\startup\c018i.c
000528   c067     MOVFF     0x67,0xff6           TBLPTR = data_ptr;                                                         C:\MCC18\src\traditional\startup\c018i.c
00052a   fff6                                                                                                               
00052c   c068     MOVFF     0x68,0xff7                                                                                      
00052e   fff7                                                                                                               
000530   c069     MOVFF     0x69,0xff8                                                                                      
000532   fff8                                                                                                               
                                                 /* next entry... */                                                        C:\MCC18\src\traditional\startup\c018i.c
000534   0100     MOVLB     0x0                  curr_entry--;                                                              C:\MCC18\src\traditional\startup\c018i.c
000536   0765     DECF      0x65,0x1,0x1                                                                                    
000538   0e00     MOVLW     0x0                                                                                             
00053a   5b66     SUBWFB    0x66,0x1,0x1                                                                                    
00053c   d7bf     BRA       0x4bc                goto test;                                                                 C:\MCC18\src\traditional\startup\c018i.c
                                           done:                                                                            C:\MCC18\src\traditional\startup\c018i.c
                                           ;                                                                                C:\MCC18\src\traditional\startup\c018i.c
00053e   0012     RETURN    0x0            }                                                                                C:\MCC18\src\traditional\startup\c018i.c
                                           #include <p18f4550.h>                                                            D:\chen\Core\FirmWare_CT\JXY_PIC_BootLoader\bootldr.c
                                                                                                                            D:\chen\Core\FirmWare_CT\JXY_PIC_BootLoader\bootldr.c
                                           #define RX_TRIS TRISCbits.TRISC7//串口端口                                       D:\chen\Core\FirmWare_CT\JXY_PIC_BootLoader\bootldr.c
                                           #define TX_TRIS TRISCbits.TRISC6                                                 D:\chen\Core\FirmWare_CT\JXY_PIC_BootLoader\bootldr.c
                                                                                                                            D:\chen\Core\FirmWare_CT\JXY_PIC_BootLoader\bootldr.c
                                           #define BOOT_TIMEOUT  1       //启动超时时间/秒                                  D:\chen\Core\FirmWare_CT\JXY_PIC_BootLoader\bootldr.c
                                           #define PROG_START    0x800   //用户程序开始位置                                 D:\chen\Core\FirmWare_CT\JXY_PIC_BootLoader\bootldr.c
                                           #define PAGESIZE      256                                                        D:\chen\Core\FirmWare_CT\JXY_PIC_BootLoader\bootldr.c
                                           #define MEM_TOP       0x8000       //FLASH最大存储空间                           D:\chen\Core\FirmWare_CT\JXY_PIC_BootLoader\bootldr.c
                                                                                                                            D:\chen\Core\FirmWare_CT\JXY_PIC_BootLoader\bootldr.c
                                           void Write_One_Byte(unsigned  long address, unsigned char data);                 D:\chen\Core\FirmWare_CT\JXY_PIC_BootLoader\bootldr.c
                                           void Flash_Write64Bytes(unsigned  long address, unsigned char *Pdata);           D:\chen\Core\FirmWare_CT\JXY_PIC_BootLoader\bootldr.c
                                           void Flash_Erease64Bytes(unsigned  long address);                                D:\chen\Core\FirmWare_CT\JXY_PIC_BootLoader\bootldr.c
                                           void SetTimer(void);                                                             D:\chen\Core\FirmWare_CT\JXY_PIC_BootLoader\bootldr.c
                                                                                                                            D:\chen\Core\FirmWare_CT\JXY_PIC_BootLoader\bootldr.c
                                           #pragma udata gg                                                                 D:\chen\Core\FirmWare_CT\JXY_PIC_BootLoader\bootldr.c
                                            unsigned char buff[256];  //编程缓冲区 //                                       D:\chen\Core\FirmWare_CT\JXY_PIC_BootLoader\bootldr.c
                                           #pragma udata                                                                    D:\chen\Core\FirmWare_CT\JXY_PIC_BootLoader\bootldr.c
                                                                                                                            D:\chen\Core\FirmWare_CT\JXY_PIC_BootLoader\bootldr.c
                                            unsigned char dataflag,rectdat;                                                 D:\chen\Core\FirmWare_CT\JXY_PIC_BootLoader\bootldr.c
                                            unsigned int  bcount;                                                           D:\chen\Core\FirmWare_CT\JXY_PIC_BootLoader\bootldr.c
                                            unsigned char delay_time;                                                       D:\chen\Core\FirmWare_CT\JXY_PIC_BootLoader\bootldr.c
                                            unsigned  long flashaddr;                                                       D:\chen\Core\FirmWare_CT\JXY_PIC_BootLoader\bootldr.c
                                                                                                                            D:\chen\Core\FirmWare_CT\JXY_PIC_BootLoader\bootldr.c
                                           #pragma code High_Interrupt_Vector=0X08                                          D:\chen\Core\FirmWare_CT\JXY_PIC_BootLoader\bootldr.c
                                           void high_ISR(void)                                                              D:\chen\Core\FirmWare_CT\JXY_PIC_BootLoader\bootldr.c
                                           {                                                                                D:\chen\Core\FirmWare_CT\JXY_PIC_BootLoader\bootldr.c
                                           	_asm                                                                            D:\chen\Core\FirmWare_CT\JXY_PIC_BootLoader\bootldr.c
000008   ef04     GOTO      0x808          	goto   PROG_START+0x08                                                          D:\chen\Core\FirmWare_CT\JXY_PIC_BootLoader\bootldr.c
00000a   f004                                                                                                               
                                           	_endasm                                                                         D:\chen\Core\FirmWare_CT\JXY_PIC_BootLoader\bootldr.c
00000c   0012     RETURN    0x0            }                                                                                D:\chen\Core\FirmWare_CT\JXY_PIC_BootLoader\bootldr.c
                                           #pragma code                                                                     D:\chen\Core\FirmWare_CT\JXY_PIC_BootLoader\bootldr.c
                                                                                                                            D:\chen\Core\FirmWare_CT\JXY_PIC_BootLoader\bootldr.c
                                           #pragma code Low_Interrupt_Vector=0X18                                           D:\chen\Core\FirmWare_CT\JXY_PIC_BootLoader\bootldr.c
                                           void low_ISR(void)                                                               D:\chen\Core\FirmWare_CT\JXY_PIC_BootLoader\bootldr.c
                                           {                                                                                D:\chen\Core\FirmWare_CT\JXY_PIC_BootLoader\bootldr.c
                                           	_asm                                                                            D:\chen\Core\FirmWare_CT\JXY_PIC_BootLoader\bootldr.c
000018   ef0c     GOTO      0x818          	goto    PROG_START+0x18                                                         D:\chen\Core\FirmWare_CT\JXY_PIC_BootLoader\bootldr.c
00001a   f004                                                                                                               
                                           	_endasm                                                                         D:\chen\Core\FirmWare_CT\JXY_PIC_BootLoader\bootldr.c
00001c   0012     RETURN    0x0            }                                                                                D:\chen\Core\FirmWare_CT\JXY_PIC_BootLoader\bootldr.c
                                           #pragma code                                                                     D:\chen\Core\FirmWare_CT\JXY_PIC_BootLoader\bootldr.c
                                                                                                                            D:\chen\Core\FirmWare_CT\JXY_PIC_BootLoader\bootldr.c
                                           /*                                                                               D:\chen\Core\FirmWare_CT\JXY_PIC_BootLoader\bootldr.c
                                           #pragma code bbb=0x800                                                           D:\chen\Core\FirmWare_CT\JXY_PIC_BootLoader\bootldr.c
                                           void aaa(void)                                                                   D:\chen\Core\FirmWare_CT\JXY_PIC_BootLoader\bootldr.c
                                           {                                                                                D:\chen\Core\FirmWare_CT\JXY_PIC_BootLoader\bootldr.c
                                            int a;                                                                          D:\chen\Core\FirmWare_CT\JXY_PIC_BootLoader\bootldr.c
                                           a=1;                                                                             D:\chen\Core\FirmWare_CT\JXY_PIC_BootLoader\bootldr.c
                                           a++;                                                                             D:\chen\Core\FirmWare_CT\JXY_PIC_BootLoader\bootldr.c
                                           a--;                                                                             D:\chen\Core\FirmWare_CT\JXY_PIC_BootLoader\bootldr.c
                                           }                                                                                D:\chen\Core\FirmWare_CT\JXY_PIC_BootLoader\bootldr.c
                                           #pragma code                                                                     D:\chen\Core\FirmWare_CT\JXY_PIC_BootLoader\bootldr.c
                                           */                                                                               D:\chen\Core\FirmWare_CT\JXY_PIC_BootLoader\bootldr.c
                                                                                                                            D:\chen\Core\FirmWare_CT\JXY_PIC_BootLoader\bootldr.c
                                           // 写周期                                                                        D:\chen\Core\FirmWare_CT\JXY_PIC_BootLoader\bootldr.c
00002c   cfd9     MOVFF     0xfd9,0xfe6    void Write_Cycle(void)                                                           D:\chen\Core\FirmWare_CT\JXY_PIC_BootLoader\bootldr.c
00002e   ffe6                                                                                                               
000030   cfe1     MOVFF     0xfe1,0xfd9                                                                                     
000032   ffd9                                                                                                               
000034   52e6     MOVF      0xe6,0x1,0x0                                                                                    
000036   6adf     CLRF      0xdf,0x0       {unsigned char flag=0;                                                           D:\chen\Core\FirmWare_CT\JXY_PIC_BootLoader\bootldr.c
                                                                                                                            D:\chen\Core\FirmWare_CT\JXY_PIC_BootLoader\bootldr.c
000038   8ea6     BSF       0xa6,0x7,0x0   	EECON1bits.EEPGD = 1;                                                           D:\chen\Core\FirmWare_CT\JXY_PIC_BootLoader\bootldr.c
00003a   9ca6     BCF       0xa6,0x6,0x0   	EECON1bits.CFGS = 0;                                                            D:\chen\Core\FirmWare_CT\JXY_PIC_BootLoader\bootldr.c
00003c   84a6     BSF       0xa6,0x2,0x0   	EECON1bits.WREN = 1;                                                            D:\chen\Core\FirmWare_CT\JXY_PIC_BootLoader\bootldr.c
                                           	                                                                                D:\chen\Core\FirmWare_CT\JXY_PIC_BootLoader\bootldr.c
00003e   aef2     BTFSS     0xf2,0x7,0x0   	if(INTCONbits.GIE)//禁止全局中断                                                D:\chen\Core\FirmWare_CT\JXY_PIC_BootLoader\bootldr.c
000040   d003     BRA       0x48                                                                                            
                                           	{                                                                               D:\chen\Core\FirmWare_CT\JXY_PIC_BootLoader\bootldr.c
000042   9ef2     BCF       0xf2,0x7,0x0   		INTCONbits.GIE = 0;                                                            D:\chen\Core\FirmWare_CT\JXY_PIC_BootLoader\bootldr.c
000044   0e01     MOVLW     0x1            		flag=1;                                                                        D:\chen\Core\FirmWare_CT\JXY_PIC_BootLoader\bootldr.c
000046   6edf     MOVWF     0xdf,0x0                                                                                        
                                           	}                                                                               D:\chen\Core\FirmWare_CT\JXY_PIC_BootLoader\bootldr.c
                                           	                                                                                D:\chen\Core\FirmWare_CT\JXY_PIC_BootLoader\bootldr.c
000048   0e55     MOVLW     0x55           	EECON2 = 0X55;                                                                  D:\chen\Core\FirmWare_CT\JXY_PIC_BootLoader\bootldr.c
00004a   6ea7     MOVWF     0xa7,0x0                                                                                        
00004c   0eaa     MOVLW     0xaa           	EECON2 = 0XAA;                                                                  D:\chen\Core\FirmWare_CT\JXY_PIC_BootLoader\bootldr.c
00004e   6ea7     MOVWF     0xa7,0x0                                                                                        
000050   82a6     BSF       0xa6,0x1,0x0   	EECON1bits.WR = 1;                                                              D:\chen\Core\FirmWare_CT\JXY_PIC_BootLoader\bootldr.c
000052   0000     NOP                      	Nop();                                                                          D:\chen\Core\FirmWare_CT\JXY_PIC_BootLoader\bootldr.c
000054   0000     NOP                      	Nop();                                                                          D:\chen\Core\FirmWare_CT\JXY_PIC_BootLoader\bootldr.c
000056   b2a6     BTFSC     0xa6,0x1,0x0   	while (EECON1bits.WR);	                                                         D:\chen\Core\FirmWare_CT\JXY_PIC_BootLoader\bootldr.c
000058   d7fe     BRA       0x56                                                                                            
00005a   94a6     BCF       0xa6,0x2,0x0   	EECON1bits.WREN = 0;                                                            D:\chen\Core\FirmWare_CT\JXY_PIC_BootLoader\bootldr.c
                                           	                                                                                D:\chen\Core\FirmWare_CT\JXY_PIC_BootLoader\bootldr.c
00005c   50df     MOVF      0xdf,0x0,0x0       if(flag){INTCONbits.GIE = 1;}//允许全局中断                                  D:\chen\Core\FirmWare_CT\JXY_PIC_BootLoader\bootldr.c
00005e   e001     BZ        0x62                                                                                            
000060   8ef2     BSF       0xf2,0x7,0x0                                                                                    
000062   52e5     MOVF      0xe5,0x1,0x0   }                                                                                D:\chen\Core\FirmWare_CT\JXY_PIC_BootLoader\bootldr.c
000064   52e5     MOVF      0xe5,0x1,0x0                                                                                    
000066   cfe7     MOVFF     0xfe7,0xfd9                                                                                     
000068   ffd9                                                                                                               
00006a   0012     RETURN    0x0                                                                                             
                                                                                                                            D:\chen\Core\FirmWare_CT\JXY_PIC_BootLoader\bootldr.c
                                                                                                                            D:\chen\Core\FirmWare_CT\JXY_PIC_BootLoader\bootldr.c
                                                                                                                            D:\chen\Core\FirmWare_CT\JXY_PIC_BootLoader\bootldr.c
                                           //写函数，每次写入64字节                                                         D:\chen\Core\FirmWare_CT\JXY_PIC_BootLoader\bootldr.c
00006c   cfd9     MOVFF     0xfd9,0xfe6    void Flash_Write64Bytes(unsigned  long address, unsigned char *Pdata)            D:\chen\Core\FirmWare_CT\JXY_PIC_BootLoader\bootldr.c
00006e   ffe6                                                                                                               
000070   cfe1     MOVFF     0xfe1,0xfd9                                                                                     
000072   ffd9                                                                                                               
000074   0e03     MOVLW     0x3                                                                                             
000076   26e1     ADDWF     0xe1,0x1,0x0                                                                                    
                                           {                                                                                D:\chen\Core\FirmWare_CT\JXY_PIC_BootLoader\bootldr.c
                                           	unsigned char count,i;                                                          D:\chen\Core\FirmWare_CT\JXY_PIC_BootLoader\bootldr.c
                                           	unsigned char length;                                                           D:\chen\Core\FirmWare_CT\JXY_PIC_BootLoader\bootldr.c
                                           	                                                                                D:\chen\Core\FirmWare_CT\JXY_PIC_BootLoader\bootldr.c
000078   50d9     MOVF      0xd9,0x0,0x0   	Flash_Erease64Bytes(address);                                                   D:\chen\Core\FirmWare_CT\JXY_PIC_BootLoader\bootldr.c
00007a   0ffb     ADDLW     0xfb                                                                                            
00007c   6ee9     MOVWF     0xe9,0x0                                                                                        
00007e   0eff     MOVLW     0xff                                                                                            
000080   20da     ADDWFC    0xda,0x0,0x0                                                                                    
000082   6eea     MOVWF     0xea,0x0                                                                                        
000084   cfee     MOVFF     0xfee,0xfe6                                                                                     
000086   ffe6                                                                                                               
000088   cfee     MOVFF     0xfee,0xfe6                                                                                     
00008a   ffe6                                                                                                               
00008c   cfee     MOVFF     0xfee,0xfe6                                                                                     
00008e   ffe6                                                                                                               
000090   cfef     MOVFF     0xfef,0xfe6                                                                                     
000092   ffe6                                                                                                               
000094   d892     RCALL     0x1ba                                                                                           
000096   52e5     MOVF      0xe5,0x1,0x0                                                                                    
000098   52e5     MOVF      0xe5,0x1,0x0                                                                                    
00009a   52e5     MOVF      0xe5,0x1,0x0                                                                                    
00009c   52e5     MOVF      0xe5,0x1,0x0                                                                                    
                                           	                                                                                D:\chen\Core\FirmWare_CT\JXY_PIC_BootLoader\bootldr.c
00009e   6adf     CLRF      0xdf,0x0       	for (count=0; count<8; count++)                                                 D:\chen\Core\FirmWare_CT\JXY_PIC_BootLoader\bootldr.c
0000a0   0e08     MOVLW     0x8                                                                                             
0000a2   5cdf     SUBWF     0xdf,0x0,0x0                                                                                    
0000a4   e301     BNC       0xa8                                                                                            
0000a6   d07d     BRA       0x1a2                                                                                           
00019e   2adf     INCF      0xdf,0x1,0x0                                                                                    
0001a0   d77f     BRA       0xa0                                                                                            
                                           	{		                                                                             D:\chen\Core\FirmWare_CT\JXY_PIC_BootLoader\bootldr.c
0000a8   6af8     CLRF      0xf8,0x0       		TBLPTRU = 0;//( ( (address + count * 8)>>8)>>8);                               D:\chen\Core\FirmWare_CT\JXY_PIC_BootLoader\bootldr.c
                                           		                                                                               D:\chen\Core\FirmWare_CT\JXY_PIC_BootLoader\bootldr.c
0000aa   0e02     MOVLW     0x2            		for (length=0; length<8; length++)                                             D:\chen\Core\FirmWare_CT\JXY_PIC_BootLoader\bootldr.c
0000ac   6adb     CLRF      0xdb,0x0                                                                                        
0000ae   0e08     MOVLW     0x8                                                                                             
0000b0   6ef3     MOVWF     0xf3,0x0                                                                                        
0000b2   0e02     MOVLW     0x2                                                                                             
0000b4   cfdb     MOVFF     0xfdb,0xff4                                                                                     
0000b6   fff4                                                                                                               
0000b8   50f3     MOVF      0xf3,0x0,0x0                                                                                    
0000ba   5cf4     SUBWF     0xf4,0x0,0x0                                                                                    
0000bc   e26e     BC        0x19a                                                                                           
000194   0e02     MOVLW     0x2                                                                                             
000196   2adb     INCF      0xdb,0x1,0x0                                                                                    
000198   d78a     BRA       0xae                                                                                            
                                           		{                                                                              D:\chen\Core\FirmWare_CT\JXY_PIC_BootLoader\bootldr.c
0000be   0e08     MOVLW     0x8            			TBLPTRL = ( (address + count * 8 + length) & 0xFF);                           D:\chen\Core\FirmWare_CT\JXY_PIC_BootLoader\bootldr.c
0000c0   02df     MULWF     0xdf,0x0                                                                                        
0000c2   cff3     MOVFF     0xff3,0x14                                                                                      
0000c4   f014                                                                                                               
0000c6   6a15     CLRF      0x15,0x0                                                                                        
0000c8   6a16     CLRF      0x16,0x0                                                                                        
0000ca   6a17     CLRF      0x17,0x0                                                                                        
0000cc   50d9     MOVF      0xd9,0x0,0x0                                                                                    
0000ce   0ffb     ADDLW     0xfb                                                                                            
0000d0   6ee9     MOVWF     0xe9,0x0                                                                                        
0000d2   0eff     MOVLW     0xff                                                                                            
0000d4   20da     ADDWFC    0xda,0x0,0x0                                                                                    
0000d6   6eea     MOVWF     0xea,0x0                                                                                        
0000d8   50ee     MOVF      0xee,0x0,0x0                                                                                    
0000da   2614     ADDWF     0x14,0x1,0x0                                                                                    
0000dc   50ee     MOVF      0xee,0x0,0x0                                                                                    
0000de   2215     ADDWFC    0x15,0x1,0x0                                                                                    
0000e0   50ee     MOVF      0xee,0x0,0x0                                                                                    
0000e2   2216     ADDWFC    0x16,0x1,0x0                                                                                    
0000e4   50ee     MOVF      0xee,0x0,0x0                                                                                    
0000e6   2217     ADDWFC    0x17,0x1,0x0                                                                                    
0000e8   0e02     MOVLW     0x2                                                                                             
0000ea   cfdb     MOVFF     0xfdb,0x18                                                                                      
0000ec   f018                                                                                                               
0000ee   6a19     CLRF      0x19,0x0                                                                                        
0000f0   6a1a     CLRF      0x1a,0x0                                                                                        
0000f2   6a1b     CLRF      0x1b,0x0                                                                                        
0000f4   5018     MOVF      0x18,0x0,0x0                                                                                    
0000f6   2614     ADDWF     0x14,0x1,0x0                                                                                    
0000f8   5019     MOVF      0x19,0x0,0x0                                                                                    
0000fa   2215     ADDWFC    0x15,0x1,0x0                                                                                    
0000fc   501a     MOVF      0x1a,0x0,0x0                                                                                    
0000fe   2216     ADDWFC    0x16,0x1,0x0                                                                                    
000100   501b     MOVF      0x1b,0x0,0x0                                                                                    
000102   2217     ADDWFC    0x17,0x1,0x0                                                                                    
000104   5014     MOVF      0x14,0x0,0x0                                                                                    
000106   6ef6     MOVWF     0xf6,0x0                                                                                        
000108   0e08     MOVLW     0x8            			TBLPTRH = ( ( (address + count * 8 + length)>>8) & 0XFF);                     D:\chen\Core\FirmWare_CT\JXY_PIC_BootLoader\bootldr.c
00010a   02df     MULWF     0xdf,0x0                                                                                        
00010c   cff3     MOVFF     0xff3,0x14                                                                                      
00010e   f014                                                                                                               
000110   6a15     CLRF      0x15,0x0                                                                                        
000112   6a16     CLRF      0x16,0x0                                                                                        
000114   6a17     CLRF      0x17,0x0                                                                                        
000116   50d9     MOVF      0xd9,0x0,0x0                                                                                    
000118   0ffb     ADDLW     0xfb                                                                                            
00011a   6ee9     MOVWF     0xe9,0x0                                                                                        
00011c   0eff     MOVLW     0xff                                                                                            
00011e   20da     ADDWFC    0xda,0x0,0x0                                                                                    
000120   6eea     MOVWF     0xea,0x0                                                                                        
000122   50ee     MOVF      0xee,0x0,0x0                                                                                    
000124   2614     ADDWF     0x14,0x1,0x0                                                                                    
000126   50ee     MOVF      0xee,0x0,0x0                                                                                    
000128   2215     ADDWFC    0x15,0x1,0x0                                                                                    
00012a   50ee     MOVF      0xee,0x0,0x0                                                                                    
00012c   2216     ADDWFC    0x16,0x1,0x0                                                                                    
00012e   50ee     MOVF      0xee,0x0,0x0                                                                                    
000130   2217     ADDWFC    0x17,0x1,0x0                                                                                    
000132   0e02     MOVLW     0x2                                                                                             
000134   cfdb     MOVFF     0xfdb,0x18                                                                                      
000136   f018                                                                                                               
000138   6a19     CLRF      0x19,0x0                                                                                        
00013a   6a1a     CLRF      0x1a,0x0                                                                                        
00013c   6a1b     CLRF      0x1b,0x0                                                                                        
00013e   5018     MOVF      0x18,0x0,0x0                                                                                    
000140   2614     ADDWF     0x14,0x1,0x0                                                                                    
000142   5019     MOVF      0x19,0x0,0x0                                                                                    
000144   2215     ADDWFC    0x15,0x1,0x0                                                                                    
000146   501a     MOVF      0x1a,0x0,0x0                                                                                    
000148   2216     ADDWFC    0x16,0x1,0x0                                                                                    
00014a   501b     MOVF      0x1b,0x0,0x0                                                                                    
00014c   2217     ADDWFC    0x17,0x1,0x0                                                                                    
00014e   0e08     MOVLW     0x8                                                                                             
000150   90d8     BCF       0xd8,0x0,0x0                                                                                    
000152   3217     RRCF      0x17,0x1,0x0                                                                                    
000154   3216     RRCF      0x16,0x1,0x0                                                                                    
000156   3215     RRCF      0x15,0x1,0x0                                                                                    
000158   3214     RRCF      0x14,0x1,0x0                                                                                    
00015a   06e8     DECF      0xe8,0x1,0x0                                                                                    
00015c   e1f9     BNZ       0x150                                                                                           
00015e   5014     MOVF      0x14,0x0,0x0                                                                                    
000160   6ef7     MOVWF     0xf7,0x0                                                                                        
000162   0e02     MOVLW     0x2            			TABLAT = *(Pdata + length + count * 8);                                       D:\chen\Core\FirmWare_CT\JXY_PIC_BootLoader\bootldr.c
000164   50db     MOVF      0xdb,0x0,0x0                                                                                    
000166   6ee7     MOVWF     0xe7,0x0                                                                                        
000168   0ef9     MOVLW     0xf9                                                                                            
00016a   cfdb     MOVFF     0xfdb,0x14                                                                                      
00016c   f014                                                                                                               
00016e   0efa     MOVLW     0xfa                                                                                            
000170   cfdb     MOVFF     0xfdb,0x15                                                                                      
000172   f015                                                                                                               
000174   50e7     MOVF      0xe7,0x0,0x0                                                                                    
000176   2614     ADDWF     0x14,0x1,0x0                                                                                    
000178   0e00     MOVLW     0x0                                                                                             
00017a   2215     ADDWFC    0x15,0x1,0x0                                                                                    
00017c   0e08     MOVLW     0x8                                                                                             
00017e   02df     MULWF     0xdf,0x0                                                                                        
000180   50f3     MOVF      0xf3,0x0,0x0                                                                                    
000182   010f     MOVLB     0xf                                                                                             
000184   2414     ADDWF     0x14,0x0,0x0                                                                                    
000186   6ee9     MOVWF     0xe9,0x0                                                                                        
000188   0e00     MOVLW     0x0                                                                                             
00018a   2015     ADDWFC    0x15,0x0,0x0                                                                                    
00018c   6eea     MOVWF     0xea,0x0                                                                                        
00018e   50ef     MOVF      0xef,0x0,0x0                                                                                    
000190   6ef5     MOVWF     0xf5,0x0                                                                                        
                                                             _asm                                                           D:\chen\Core\FirmWare_CT\JXY_PIC_BootLoader\bootldr.c
000192   000c     TBLWT                                      tblwt                                                          D:\chen\Core\FirmWare_CT\JXY_PIC_BootLoader\bootldr.c
                                           			_endasm                                                                       D:\chen\Core\FirmWare_CT\JXY_PIC_BootLoader\bootldr.c
                                           /*                                                                               D:\chen\Core\FirmWare_CT\JXY_PIC_BootLoader\bootldr.c
                                           			if (length != 0)                                                              D:\chen\Core\FirmWare_CT\JXY_PIC_BootLoader\bootldr.c
                                           			{                                                                             D:\chen\Core\FirmWare_CT\JXY_PIC_BootLoader\bootldr.c
                                           				_asm                                                                         D:\chen\Core\FirmWare_CT\JXY_PIC_BootLoader\bootldr.c
                                           				TBLWTPREINC                                                                  D:\chen\Core\FirmWare_CT\JXY_PIC_BootLoader\bootldr.c
                                           				_endasm                                                                      D:\chen\Core\FirmWare_CT\JXY_PIC_BootLoader\bootldr.c
                                           			}                                                                             D:\chen\Core\FirmWare_CT\JXY_PIC_BootLoader\bootldr.c
                                           			else                                                                          D:\chen\Core\FirmWare_CT\JXY_PIC_BootLoader\bootldr.c
                                           			{                                                                             D:\chen\Core\FirmWare_CT\JXY_PIC_BootLoader\bootldr.c
                                           				//asm("\tTBLWT*");                                                           D:\chen\Core\FirmWare_CT\JXY_PIC_BootLoader\bootldr.c
                                           			}*/			                                                                        D:\chen\Core\FirmWare_CT\JXY_PIC_BootLoader\bootldr.c
                                           		}                                                                              D:\chen\Core\FirmWare_CT\JXY_PIC_BootLoader\bootldr.c
                                           		                                                                               D:\chen\Core\FirmWare_CT\JXY_PIC_BootLoader\bootldr.c
00019a   98a6     BCF       0xa6,0x4,0x0   		EECON1bits.FREE = 0;                                                           D:\chen\Core\FirmWare_CT\JXY_PIC_BootLoader\bootldr.c
00019c   df47     RCALL     0x2c           		Write_Cycle();                                                                 D:\chen\Core\FirmWare_CT\JXY_PIC_BootLoader\bootldr.c
                                           	}                                                                               D:\chen\Core\FirmWare_CT\JXY_PIC_BootLoader\bootldr.c
0001a2   6ef5     MOVWF     0xf5,0x0       }                                                                                D:\chen\Core\FirmWare_CT\JXY_PIC_BootLoader\bootldr.c
0001a4   0e03     MOVLW     0x3                                                                                             
0001a6   5ce1     SUBWF     0xe1,0x0,0x0                                                                                    
0001a8   e202     BC        0x1ae                                                                                           
0001aa   6ae1     CLRF      0xe1,0x0                                                                                        
0001ac   52e5     MOVF      0xe5,0x1,0x0                                                                                    
0001ae   6ee1     MOVWF     0xe1,0x0                                                                                        
0001b0   50f5     MOVF      0xf5,0x0,0x0                                                                                    
0001b2   52e5     MOVF      0xe5,0x1,0x0                                                                                    
0001b4   cfe7     MOVFF     0xfe7,0xfd9                                                                                     
0001b6   ffd9                                                                                                               
0001b8   0012     RETURN    0x0                                                                                             
                                                                                                                            D:\chen\Core\FirmWare_CT\JXY_PIC_BootLoader\bootldr.c
0001ba   cfd9     MOVFF     0xfd9,0xfe6    void Flash_Erease64Bytes(unsigned  long address)//大约耗时40ms                   D:\chen\Core\FirmWare_CT\JXY_PIC_BootLoader\bootldr.c
0001bc   ffe6                                                                                                               
0001be   cfe1     MOVFF     0xfe1,0xfd9                                                                                     
0001c0   ffd9                                                                                                               
0001c2   52e6     MOVF      0xe6,0x1,0x0                                                                                    
                                           {                                                                                D:\chen\Core\FirmWare_CT\JXY_PIC_BootLoader\bootldr.c
0001c4   6adf     CLRF      0xdf,0x0         unsigned char flag=0;                                                          D:\chen\Core\FirmWare_CT\JXY_PIC_BootLoader\bootldr.c
                                                                                                                            D:\chen\Core\FirmWare_CT\JXY_PIC_BootLoader\bootldr.c
0001c6   50d9     MOVF      0xd9,0x0,0x0     if(address<PROG_START)                                                         D:\chen\Core\FirmWare_CT\JXY_PIC_BootLoader\bootldr.c
0001c8   0ffb     ADDLW     0xfb                                                                                            
0001ca   6ee9     MOVWF     0xe9,0x0                                                                                        
0001cc   0eff     MOVLW     0xff                                                                                            
0001ce   20da     ADDWFC    0xda,0x0,0x0                                                                                    
0001d0   6eea     MOVWF     0xea,0x0                                                                                        
0001d2   0e00     MOVLW     0x0                                                                                             
0001d4   5cee     SUBWF     0xee,0x0,0x0                                                                                    
0001d6   0e08     MOVLW     0x8                                                                                             
0001d8   58ee     SUBWFB    0xee,0x0,0x0                                                                                    
0001da   0e00     MOVLW     0x0                                                                                             
0001dc   58ee     SUBWFB    0xee,0x0,0x0                                                                                    
0001de   0e00     MOVLW     0x0                                                                                             
0001e0   58ee     SUBWFB    0xee,0x0,0x0                                                                                    
0001e2   e201     BC        0x1e6                                                                                           
0001e4   d03f     BRA       0x264            {return ;}                                                                     D:\chen\Core\FirmWare_CT\JXY_PIC_BootLoader\bootldr.c
                                                                                                                            D:\chen\Core\FirmWare_CT\JXY_PIC_BootLoader\bootldr.c
0001e6   50d9     MOVF      0xd9,0x0,0x0    if(address>=MEM_TOP)                                                            D:\chen\Core\FirmWare_CT\JXY_PIC_BootLoader\bootldr.c
0001e8   0ffb     ADDLW     0xfb                                                                                            
0001ea   6ee9     MOVWF     0xe9,0x0                                                                                        
0001ec   0eff     MOVLW     0xff                                                                                            
0001ee   20da     ADDWFC    0xda,0x0,0x0                                                                                    
0001f0   6eea     MOVWF     0xea,0x0                                                                                        
0001f2   0e00     MOVLW     0x0                                                                                             
0001f4   5cee     SUBWF     0xee,0x0,0x0                                                                                    
0001f6   0e80     MOVLW     0x80                                                                                            
0001f8   58ee     SUBWFB    0xee,0x0,0x0                                                                                    
0001fa   0e00     MOVLW     0x0                                                                                             
0001fc   58ee     SUBWFB    0xee,0x0,0x0                                                                                    
0001fe   0e00     MOVLW     0x0                                                                                             
000200   58ee     SUBWFB    0xee,0x0,0x0                                                                                    
000202   e301     BNC       0x206                                                                                           
000204   d02f     BRA       0x264            {return ;}                                                                     D:\chen\Core\FirmWare_CT\JXY_PIC_BootLoader\bootldr.c
                                                                                                                            D:\chen\Core\FirmWare_CT\JXY_PIC_BootLoader\bootldr.c
                                             // 擦除程序空间 //                                                             D:\chen\Core\FirmWare_CT\JXY_PIC_BootLoader\bootldr.c
000206   6af8     CLRF      0xf8,0x0           TBLPTRU=0;                                                                   D:\chen\Core\FirmWare_CT\JXY_PIC_BootLoader\bootldr.c
000208   0efb     MOVLW     0xfb               TBLPTRL=(unsigned char)address;//擦除起始地址                                D:\chen\Core\FirmWare_CT\JXY_PIC_BootLoader\bootldr.c
00020a   50db     MOVF      0xdb,0x0,0x0                                                                                    
00020c   6ef6     MOVWF     0xf6,0x0                                                                                        
00020e   0efb     MOVLW     0xfb               TBLPTRH=(unsigned char)(address>>8);                                         D:\chen\Core\FirmWare_CT\JXY_PIC_BootLoader\bootldr.c
000210   cfdb     MOVFF     0xfdb,0x14                                                                                      
000212   f014                                                                                                               
000214   0efc     MOVLW     0xfc                                                                                            
000216   cfdb     MOVFF     0xfdb,0x15                                                                                      
000218   f015                                                                                                               
00021a   0efd     MOVLW     0xfd                                                                                            
00021c   cfdb     MOVFF     0xfdb,0x16                                                                                      
00021e   f016                                                                                                               
000220   0efe     MOVLW     0xfe                                                                                            
000222   cfdb     MOVFF     0xfdb,0x17                                                                                      
000224   f017                                                                                                               
000226   0e08     MOVLW     0x8                                                                                             
000228   90d8     BCF       0xd8,0x0,0x0                                                                                    
00022a   3217     RRCF      0x17,0x1,0x0                                                                                    
00022c   3216     RRCF      0x16,0x1,0x0                                                                                    
00022e   3215     RRCF      0x15,0x1,0x0                                                                                    
000230   3214     RRCF      0x14,0x1,0x0                                                                                    
000232   06e8     DECF      0xe8,0x1,0x0                                                                                    
000234   e1f9     BNZ       0x228                                                                                           
000236   5014     MOVF      0x14,0x0,0x0                                                                                    
000238   6ef7     MOVWF     0xf7,0x0                                                                                        
                                                                                                                            D:\chen\Core\FirmWare_CT\JXY_PIC_BootLoader\bootldr.c
00023a   8ea6     BSF       0xa6,0x7,0x0        EECON1bits.EEPGD=1;//指向程序存储器访问FLASH                                D:\chen\Core\FirmWare_CT\JXY_PIC_BootLoader\bootldr.c
00023c   9ca6     BCF       0xa6,0x6,0x0        EECON1bits.CFGS=0;//访问FLASH和EEPROM                                       D:\chen\Core\FirmWare_CT\JXY_PIC_BootLoader\bootldr.c
00023e   84a6     BSF       0xa6,0x2,0x0        EECON1bits.WREN = 1;//允许写                                                D:\chen\Core\FirmWare_CT\JXY_PIC_BootLoader\bootldr.c
000240   88a6     BSF       0xa6,0x4,0x0        EECON1bits.FREE = 1; //允许擦除                                             D:\chen\Core\FirmWare_CT\JXY_PIC_BootLoader\bootldr.c
000242   9ef2     BCF       0xf2,0x7,0x0        INTCONbits.GIE = 0;                                                         D:\chen\Core\FirmWare_CT\JXY_PIC_BootLoader\bootldr.c
000244   aef2     BTFSS     0xf2,0x7,0x0        if(INTCONbits.GIE)//禁止全局中断                                            D:\chen\Core\FirmWare_CT\JXY_PIC_BootLoader\bootldr.c
000246   d003     BRA       0x24e                                                                                           
                                           	{                                                                               D:\chen\Core\FirmWare_CT\JXY_PIC_BootLoader\bootldr.c
000248   9ef2     BCF       0xf2,0x7,0x0   		INTCONbits.GIE = 0;                                                            D:\chen\Core\FirmWare_CT\JXY_PIC_BootLoader\bootldr.c
00024a   0e01     MOVLW     0x1            		flag=1;                                                                        D:\chen\Core\FirmWare_CT\JXY_PIC_BootLoader\bootldr.c
00024c   6edf     MOVWF     0xdf,0x0                                                                                        
                                           	}                                                                               D:\chen\Core\FirmWare_CT\JXY_PIC_BootLoader\bootldr.c
00024e   0e55     MOVLW     0x55                EECON2 = 0x55;                                                              D:\chen\Core\FirmWare_CT\JXY_PIC_BootLoader\bootldr.c
000250   6ea7     MOVWF     0xa7,0x0                                                                                        
000252   0eaa     MOVLW     0xaa                EECON2 = 0xAA;                                                              D:\chen\Core\FirmWare_CT\JXY_PIC_BootLoader\bootldr.c
000254   6ea7     MOVWF     0xa7,0x0                                                                                        
000256   82a6     BSF       0xa6,0x1,0x0        EECON1bits.WR = 1;                                                          D:\chen\Core\FirmWare_CT\JXY_PIC_BootLoader\bootldr.c
                                                                                                                            D:\chen\Core\FirmWare_CT\JXY_PIC_BootLoader\bootldr.c
000258   b2a6     BTFSC     0xa6,0x1,0x0       while(EECON1bits.WR);//查询写操作是否完成，完成后硬件自动清零                D:\chen\Core\FirmWare_CT\JXY_PIC_BootLoader\bootldr.c
00025a   d7fe     BRA       0x258                                                                                           
00025c   94a6     BCF       0xa6,0x2,0x0       EECON1bits.WREN = 0;                                                         D:\chen\Core\FirmWare_CT\JXY_PIC_BootLoader\bootldr.c
                                                                                                                            D:\chen\Core\FirmWare_CT\JXY_PIC_BootLoader\bootldr.c
00025e   50df     MOVF      0xdf,0x0,0x0       if(flag){INTCONbits.GIE = 1;}//允许全局中断                                  D:\chen\Core\FirmWare_CT\JXY_PIC_BootLoader\bootldr.c
000260   e001     BZ        0x264                                                                                           
000262   8ef2     BSF       0xf2,0x7,0x0                                                                                    
000264   52e5     MOVF      0xe5,0x1,0x0   }                                                                                D:\chen\Core\FirmWare_CT\JXY_PIC_BootLoader\bootldr.c
000266   52e5     MOVF      0xe5,0x1,0x0                                                                                    
000268   cfe7     MOVFF     0xfe7,0xfd9                                                                                     
00026a   ffd9                                                                                                               
00026c   0012     RETURN    0x0                                                                                             
                                                                                                                            D:\chen\Core\FirmWare_CT\JXY_PIC_BootLoader\bootldr.c
                                                                                                                            D:\chen\Core\FirmWare_CT\JXY_PIC_BootLoader\bootldr.c
                                                                                                                            D:\chen\Core\FirmWare_CT\JXY_PIC_BootLoader\bootldr.c
                                           void SetTimer(void)                                                              D:\chen\Core\FirmWare_CT\JXY_PIC_BootLoader\bootldr.c
                                           {                                                                                D:\chen\Core\FirmWare_CT\JXY_PIC_BootLoader\bootldr.c
00026e   0ece     MOVLW     0xce           	T1CON=0XCE;          //使能TIMER1振荡器,0X4E预分频1：1，0X7E预分频8：1，异步模式;	 D:\chen\Core\FirmWare_CT\JXY_PIC_BootLoader\bootldr.c
000270   6ecd     MOVWF     0xcd,0x0                                                                                        
                                           	                                                                                D:\chen\Core\FirmWare_CT\JXY_PIC_BootLoader\bootldr.c
000272   909d     BCF       0x9d,0x0,0x0   	PIE1bits.TMR1IE=0;   //不允许Timer1中断	                                        D:\chen\Core\FirmWare_CT\JXY_PIC_BootLoader\bootldr.c
000274   909e     BCF       0x9e,0x0,0x0         PIR1bits.TMR1IF=0;	//清零TIMER1中断标志                                    D:\chen\Core\FirmWare_CT\JXY_PIC_BootLoader\bootldr.c
                                           	                                                                                D:\chen\Core\FirmWare_CT\JXY_PIC_BootLoader\bootldr.c
                                           //	TMR1H=0xF0;//定时器赋初值，1/8 s                                              D:\chen\Core\FirmWare_CT\JXY_PIC_BootLoader\bootldr.c
000276   0e80     MOVLW     0x80           	TMR1H=0x80;//定时1秒                                                            D:\chen\Core\FirmWare_CT\JXY_PIC_BootLoader\bootldr.c
000278   6ecf     MOVWF     0xcf,0x0                                                                                        
00027a   6ace     CLRF      0xce,0x0       	TMR1L=0x00;		                                                                   D:\chen\Core\FirmWare_CT\JXY_PIC_BootLoader\bootldr.c
                                           		                                                                               D:\chen\Core\FirmWare_CT\JXY_PIC_BootLoader\bootldr.c
00027c   80cd     BSF       0xcd,0x0,0x0   	T1CONbits.TMR1ON=1;//开启TMR1                                                   D:\chen\Core\FirmWare_CT\JXY_PIC_BootLoader\bootldr.c
00027e   0012     RETURN    0x0            }                                                                                D:\chen\Core\FirmWare_CT\JXY_PIC_BootLoader\bootldr.c
                                                                                                                            D:\chen\Core\FirmWare_CT\JXY_PIC_BootLoader\bootldr.c
000280   cfd9     MOVFF     0xfd9,0xfe6    void main(void)                                                                  D:\chen\Core\FirmWare_CT\JXY_PIC_BootLoader\bootldr.c
000282   ffe6                                                                                                               
000284   cfe1     MOVFF     0xfe1,0xfd9                                                                                     
000286   ffd9                                                                                                               
000288   0e02     MOVLW     0x2                                                                                             
00028a   26e1     ADDWF     0xe1,0x1,0x0                                                                                    
                                           {  int i;                                                                        D:\chen\Core\FirmWare_CT\JXY_PIC_BootLoader\bootldr.c
                                               // 初始化串口                                                                D:\chen\Core\FirmWare_CT\JXY_PIC_BootLoader\bootldr.c
00028c   8e94     BSF       0x94,0x7,0x0        RX_TRIS=1;				//串行通信端口使能的必须设置                                  D:\chen\Core\FirmWare_CT\JXY_PIC_BootLoader\bootldr.c
00028e   8c94     BSF       0x94,0x6,0x0   	TX_TRIS=1;				//串行通信端口使能的必须设置                                      D:\chen\Core\FirmWare_CT\JXY_PIC_BootLoader\bootldr.c
000290   6ab0     CLRF      0xb0,0x0       	SPBRGH=0;				//波特率57600(4MHz)                                                D:\chen\Core\FirmWare_CT\JXY_PIC_BootLoader\bootldr.c
                                           	//SPBRG=16;				// 16=115200(8MHz)                                               D:\chen\Core\FirmWare_CT\JXY_PIC_BootLoader\bootldr.c
000292   0e22     MOVLW     0x22           	SPBRG=34;				// 57600 (8MHZ)                                                    D:\chen\Core\FirmWare_CT\JXY_PIC_BootLoader\bootldr.c
000294   6eaf     MOVWF     0xaf,0x0                                                                                        
000296   0e08     MOVLW     0x8            	BAUDCON=0X08;			       //16位波特率发生器，禁止波特率检测，未监视RX引脚         D:\chen\Core\FirmWare_CT\JXY_PIC_BootLoader\bootldr.c
000298   6eb8     MOVWF     0xb8,0x0                                                                                        
00029a   0e24     MOVLW     0x24           	TXSTA=0X24;				//8位发送，使能发送，高速异步模式                                D:\chen\Core\FirmWare_CT\JXY_PIC_BootLoader\bootldr.c
00029c   6eac     MOVWF     0xac,0x0                                                                                        
00029e   0e90     MOVLW     0x90           	RCSTA=0X90;				//8位接收，使能接收                                              D:\chen\Core\FirmWare_CT\JXY_PIC_BootLoader\bootldr.c
0002a0   6eab     MOVWF     0xab,0x0                                                                                        
0002a2   9a93     BCF       0x93,0x5,0x0       TRISB&=0xDF;//禁止上拉，要下拉，RB5=0，硬件设计上有保证的此行可省略          D:\chen\Core\FirmWare_CT\JXY_PIC_BootLoader\bootldr.c
                                                                                                                            D:\chen\Core\FirmWare_CT\JXY_PIC_BootLoader\bootldr.c
                                             // 某些型号的问题，需要清除这些寄存器                                          D:\chen\Core\FirmWare_CT\JXY_PIC_BootLoader\bootldr.c
0002a4   6af0     CLRF      0xf0,0x0         INTCON3=0;  // Also serves to disable interrupts                               D:\chen\Core\FirmWare_CT\JXY_PIC_BootLoader\bootldr.c
0002a6   6aa0     CLRF      0xa0,0x0         PIE2=0;                                                                        D:\chen\Core\FirmWare_CT\JXY_PIC_BootLoader\bootldr.c
0002a8   6af2     CLRF      0xf2,0x0         INTCON=0;                                                                      D:\chen\Core\FirmWare_CT\JXY_PIC_BootLoader\bootldr.c
                                           /*                                                                               D:\chen\Core\FirmWare_CT\JXY_PIC_BootLoader\bootldr.c
                                            for(i=0;i<256;i++)                                                              D:\chen\Core\FirmWare_CT\JXY_PIC_BootLoader\bootldr.c
                                              buff[i]=i;                                                                    D:\chen\Core\FirmWare_CT\JXY_PIC_BootLoader\bootldr.c
                                              Flash_Write64Bytes(0x840,&buff[0]);                                           D:\chen\Core\FirmWare_CT\JXY_PIC_BootLoader\bootldr.c
                                             while(1);                                                                      D:\chen\Core\FirmWare_CT\JXY_PIC_BootLoader\bootldr.c
                                            */                                                                              D:\chen\Core\FirmWare_CT\JXY_PIC_BootLoader\bootldr.c
                                             //使用超时判断方式                                                             D:\chen\Core\FirmWare_CT\JXY_PIC_BootLoader\bootldr.c
                                             //在指定时间内收到数据，进入编程状态，否则运行以前的程序                       D:\chen\Core\FirmWare_CT\JXY_PIC_BootLoader\bootldr.c
                                                                                                                            D:\chen\Core\FirmWare_CT\JXY_PIC_BootLoader\bootldr.c
0002aa   dfe1     RCALL     0x26e            SetTimer(); // 使用定时器定时1秒                                               D:\chen\Core\FirmWare_CT\JXY_PIC_BootLoader\bootldr.c
0002ac   0100     MOVLB     0x0              delay_time=0;                                                                  D:\chen\Core\FirmWare_CT\JXY_PIC_BootLoader\bootldr.c
0002ae   6b6e     CLRF      0x6e,0x1                                                                                        
0002d2   d7ee     BRA       0x2b0            while(1)                                                                       D:\chen\Core\FirmWare_CT\JXY_PIC_BootLoader\bootldr.c
                                             {                                                                              D:\chen\Core\FirmWare_CT\JXY_PIC_BootLoader\bootldr.c
0002b0   aa9e     BTFSS     0x9e,0x5,0x0       if (PIR1bits.RCIF)   //接受到串口数据                                        D:\chen\Core\FirmWare_CT\JXY_PIC_BootLoader\bootldr.c
0002b2   d006     BRA       0x2c0                                                                                           
                                               {                                                                            D:\chen\Core\FirmWare_CT\JXY_PIC_BootLoader\bootldr.c
0002b4   0ef9     MOVLW     0xf9                 if(RCREG==0xf9)                                                            D:\chen\Core\FirmWare_CT\JXY_PIC_BootLoader\bootldr.c
0002b6   5cae     SUBWF     0xae,0x0,0x0                                                                                    
0002b8   e103     BNZ       0x2c0                                                                                           
                                                 {                                                                          D:\chen\Core\FirmWare_CT\JXY_PIC_BootLoader\bootldr.c
0002ba   0ef9     MOVLW     0xf9                    TXREG = 0xf9;//向主控板回应一字节                                       D:\chen\Core\FirmWare_CT\JXY_PIC_BootLoader\bootldr.c
0002bc   6ead     MOVWF     0xad,0x0                                                                                        
0002be   d00a     BRA       0x2d4                   break;//联机成功，则不再等待                                            D:\chen\Core\FirmWare_CT\JXY_PIC_BootLoader\bootldr.c
                                                  }                                                                         D:\chen\Core\FirmWare_CT\JXY_PIC_BootLoader\bootldr.c
                                               }                                                                            D:\chen\Core\FirmWare_CT\JXY_PIC_BootLoader\bootldr.c
                                                                                                                            D:\chen\Core\FirmWare_CT\JXY_PIC_BootLoader\bootldr.c
0002c0   a09e     BTFSS     0x9e,0x0,0x0      if(PIR1bits.TMR1IF)//等待1秒定时标志                                          D:\chen\Core\FirmWare_CT\JXY_PIC_BootLoader\bootldr.c
0002c2   d004     BRA       0x2cc                                                                                           
                                               {                                                                            D:\chen\Core\FirmWare_CT\JXY_PIC_BootLoader\bootldr.c
0002c4   909e     BCF       0x9e,0x0,0x0         PIR1bits.TMR1IF=0;	//清零TIMER1中断标志                                    D:\chen\Core\FirmWare_CT\JXY_PIC_BootLoader\bootldr.c
0002c6   dfd3     RCALL     0x26e                SetTimer(); // 使用定时器定时1秒                                           D:\chen\Core\FirmWare_CT\JXY_PIC_BootLoader\bootldr.c
0002c8   0100     MOVLB     0x0                  delay_time++;                                                              D:\chen\Core\FirmWare_CT\JXY_PIC_BootLoader\bootldr.c
0002ca   2b6e     INCF      0x6e,0x1,0x1                                                                                    
                                               }                                                                            D:\chen\Core\FirmWare_CT\JXY_PIC_BootLoader\bootldr.c
                                                                                                                            D:\chen\Core\FirmWare_CT\JXY_PIC_BootLoader\bootldr.c
0002cc   056e     DECF      0x6e,0x0,0x1       if(delay_time==BOOT_TIMEOUT)                                                 D:\chen\Core\FirmWare_CT\JXY_PIC_BootLoader\bootldr.c
0002ce   e101     BNZ       0x2d2                                                                                           
0002d0   d001     BRA       0x2d4               {break;}                                                                    D:\chen\Core\FirmWare_CT\JXY_PIC_BootLoader\bootldr.c
                                             }                                                                              D:\chen\Core\FirmWare_CT\JXY_PIC_BootLoader\bootldr.c
0002d4   909e     BCF       0x9e,0x0,0x0     PIR1bits.TMR1IF=0;	//清零TIMER1中断标志                                        D:\chen\Core\FirmWare_CT\JXY_PIC_BootLoader\bootldr.c
0002d6   90cd     BCF       0xcd,0x0,0x0     T1CONbits.TMR1ON=0;//停止TMR1                                                  D:\chen\Core\FirmWare_CT\JXY_PIC_BootLoader\bootldr.c
                                                                                                                            D:\chen\Core\FirmWare_CT\JXY_PIC_BootLoader\bootldr.c
                                                                                                                            D:\chen\Core\FirmWare_CT\JXY_PIC_BootLoader\bootldr.c
0002d8   056e     DECF      0x6e,0x0,0x1     if (delay_time==BOOT_TIMEOUT)//联机失败                                        D:\chen\Core\FirmWare_CT\JXY_PIC_BootLoader\bootldr.c
0002da   e109     BNZ       0x2ee                                                                                           
                                             {                                                                              D:\chen\Core\FirmWare_CT\JXY_PIC_BootLoader\bootldr.c
0002dc   6a14     CLRF      0x14,0x0           (*((void(*)(void))PROG_START))(); //直接进入用户程序                         D:\chen\Core\FirmWare_CT\JXY_PIC_BootLoader\bootldr.c
0002de   0e08     MOVLW     0x8                                                                                             
0002e0   6e15     MOVWF     0x15,0x0                                                                                        
0002e2   d004     BRA       0x2ec                                                                                           
0002e4   c015     MOVFF     0x15,0xffa                                                                                      
0002e6   fffa                                                                                                               
0002e8   5014     MOVF      0x14,0x0,0x0                                                                                    
0002ea   6ef9     MOVWF     0xf9,0x0                                                                                        
0002ec   dffb     RCALL     0x2e4                                                                                           
                                             }                                                                              D:\chen\Core\FirmWare_CT\JXY_PIC_BootLoader\bootldr.c
                                                                                                                            D:\chen\Core\FirmWare_CT\JXY_PIC_BootLoader\bootldr.c
0002ee   0100     MOVLB     0x0              dataflag=0;//初始为命令状态                                                    D:\chen\Core\FirmWare_CT\JXY_PIC_BootLoader\bootldr.c
0002f0   6b6a     CLRF      0x6a,0x1                                                                                        
                                                                                                                            D:\chen\Core\FirmWare_CT\JXY_PIC_BootLoader\bootldr.c
                                           // 通过串口接收命令或数据 //                                                     D:\chen\Core\FirmWare_CT\JXY_PIC_BootLoader\bootldr.c
000488   d734     BRA       0x2f2            for(;;)   // 循环                                                              D:\chen\Core\FirmWare_CT\JXY_PIC_BootLoader\bootldr.c
                                             {                                                                              D:\chen\Core\FirmWare_CT\JXY_PIC_BootLoader\bootldr.c
0002f2   ba9e     BTFSC     0x9e,0x5,0x0   	   while(!PIR1bits.RCIF)// 等待串口数据或命令                                   D:\chen\Core\FirmWare_CT\JXY_PIC_BootLoader\bootldr.c
0002f4   d007     BRA       0x304                                                                                           
000302   d7f7     BRA       0x2f2                                                                                           
                                           	   {                                                                            D:\chen\Core\FirmWare_CT\JXY_PIC_BootLoader\bootldr.c
0002f6   a09e     BTFSS     0x9e,0x0,0x0    		if(PIR1bits.TMR1IF)  //等待1秒定时标志                                        D:\chen\Core\FirmWare_CT\JXY_PIC_BootLoader\bootldr.c
0002f8   d004     BRA       0x302                                                                                           
                                           	      {                                                                         D:\chen\Core\FirmWare_CT\JXY_PIC_BootLoader\bootldr.c
0002fa   909e     BCF       0x9e,0x0,0x0   	       PIR1bits.TMR1IF=0;	//清零TIMER1中断标志                                  D:\chen\Core\FirmWare_CT\JXY_PIC_BootLoader\bootldr.c
0002fc   90cd     BCF       0xcd,0x0,0x0                T1CONbits.TMR1ON=0;//停止TMR1                                       D:\chen\Core\FirmWare_CT\JXY_PIC_BootLoader\bootldr.c
0002fe   0100     MOVLB     0x0            	       dataflag=0;//切换为命令状态                                              D:\chen\Core\FirmWare_CT\JXY_PIC_BootLoader\bootldr.c
000300   6b6a     CLRF      0x6a,0x1                                                                                        
                                           	      }                                                                         D:\chen\Core\FirmWare_CT\JXY_PIC_BootLoader\bootldr.c
                                           	   };                                                                           D:\chen\Core\FirmWare_CT\JXY_PIC_BootLoader\bootldr.c
                                           	                                                                                D:\chen\Core\FirmWare_CT\JXY_PIC_BootLoader\bootldr.c
000304   dfb4     RCALL     0x26e                   SetTimer();                                                             D:\chen\Core\FirmWare_CT\JXY_PIC_BootLoader\bootldr.c
                                                                                                                            D:\chen\Core\FirmWare_CT\JXY_PIC_BootLoader\bootldr.c
000306   cfae     MOVFF     0xfae,0x6b     	   rectdat = RCREG;;          // 取数据或命令                                   D:\chen\Core\FirmWare_CT\JXY_PIC_BootLoader\bootldr.c
000308   f06b                                                                                                               
                                                                                                                            D:\chen\Core\FirmWare_CT\JXY_PIC_BootLoader\bootldr.c
00030a   0100     MOVLB     0x0            	   if(dataflag==1)//数据状态                                                    D:\chen\Core\FirmWare_CT\JXY_PIC_BootLoader\bootldr.c
00030c   056a     DECF      0x6a,0x0,0x1                                                                                    
00030e   e001     BZ        0x312                                                                                           
000310   d099     BRA       0x444                                                                                           
                                           	   {                                                                            D:\chen\Core\FirmWare_CT\JXY_PIC_BootLoader\bootldr.c
000312   2b6c     INCF      0x6c,0x1,0x1                bcount++;                                                           D:\chen\Core\FirmWare_CT\JXY_PIC_BootLoader\bootldr.c
000314   0e00     MOVLW     0x0                                                                                             
000316   236d     ADDWFC    0x6d,0x1,0x1                                                                                    
000318   0e01     MOVLW     0x1            		if(bcount==1)                                                                  D:\chen\Core\FirmWare_CT\JXY_PIC_BootLoader\bootldr.c
00031a   196c     XORWF     0x6c,0x0,0x1                                                                                    
00031c   e101     BNZ       0x320                                                                                           
00031e   516d     MOVF      0x6d,0x0,0x1                                                                                    
000320   e10d     BNZ       0x33c                                                                                           
000322   c06b     MOVFF     0x6b,0x6f                   {flashaddr=rectdat;                                                 D:\chen\Core\FirmWare_CT\JXY_PIC_BootLoader\bootldr.c
000324   f06f                                                                                                               
000326   6b70     CLRF      0x70,0x1                                                                                        
000328   6b71     CLRF      0x71,0x1                                                                                        
00032a   6b72     CLRF      0x72,0x1                                                                                        
00032c   c071     MOVFF     0x71,0x72      		  flashaddr<<=8;}                                                              D:\chen\Core\FirmWare_CT\JXY_PIC_BootLoader\bootldr.c
00032e   f072                                                                                                               
000330   c070     MOVFF     0x70,0x71                                                                                       
000332   f071                                                                                                               
000334   c06f     MOVFF     0x6f,0x70                                                                                       
000336   f070                                                                                                               
000338   6b6f     CLRF      0x6f,0x1                                                                                        
00033a   d026     BRA       0x388                      else if(bcount==2)                                                   D:\chen\Core\FirmWare_CT\JXY_PIC_BootLoader\bootldr.c
00033c   0e02     MOVLW     0x2                                                                                             
00033e   196c     XORWF     0x6c,0x0,0x1                                                                                    
000340   e101     BNZ       0x344                                                                                           
000342   516d     MOVF      0x6d,0x0,0x1                                                                                    
000344   e113     BNZ       0x36c                                                                                           
000346   516b     MOVF      0x6b,0x0,0x1                {flashaddr|=rectdat;//页索引                                        D:\chen\Core\FirmWare_CT\JXY_PIC_BootLoader\bootldr.c
000348   136f     IORWF     0x6f,0x1,0x1                                                                                    
00034a   0e00     MOVLW     0x0                                                                                             
00034c   1370     IORWF     0x70,0x1,0x1                                                                                    
00034e   1371     IORWF     0x71,0x1,0x1                                                                                    
000350   1372     IORWF     0x72,0x1,0x1                                                                                    
000352   c071     MOVFF     0x71,0x72                    flashaddr*=(PAGESIZE);// 每页多少字节                              D:\chen\Core\FirmWare_CT\JXY_PIC_BootLoader\bootldr.c
000354   f072                                                                                                               
000356   c070     MOVFF     0x70,0x71                                                                                       
000358   f071                                                                                                               
00035a   c06f     MOVFF     0x6f,0x70                                                                                       
00035c   f070                                                                                                               
00035e   6b6f     CLRF      0x6f,0x1                                                                                        
000360   0e08     MOVLW     0x8            		  flashaddr+=PROG_START;                                                       D:\chen\Core\FirmWare_CT\JXY_PIC_BootLoader\bootldr.c
000362   2770     ADDWF     0x70,0x1,0x1                                                                                    
000364   0e00     MOVLW     0x0                                                                                             
000366   2371     ADDWFC    0x71,0x1,0x1                                                                                    
000368   2372     ADDWFC    0x72,0x1,0x1                                                                                    
                                           		  }                                                                            D:\chen\Core\FirmWare_CT\JXY_PIC_BootLoader\bootldr.c
00036a   d00e     BRA       0x388                      else                                                                 D:\chen\Core\FirmWare_CT\JXY_PIC_BootLoader\bootldr.c
                                                        {                                                                   D:\chen\Core\FirmWare_CT\JXY_PIC_BootLoader\bootldr.c
00036c   c06c     MOVFF     0x6c,0xfe9                   buff[bcount-3]=rectdat;                                            D:\chen\Core\FirmWare_CT\JXY_PIC_BootLoader\bootldr.c
00036e   ffe9                                                                                                               
000370   c06d     MOVFF     0x6d,0xfea                                                                                      
000372   ffea                                                                                                               
000374   0e03     MOVLW     0x3                                                                                             
000376   5ee9     SUBWF     0xe9,0x1,0x0                                                                                    
000378   0e00     MOVLW     0x0                                                                                             
00037a   5aea     SUBWFB    0xea,0x1,0x0                                                                                    
00037c   0e00     MOVLW     0x0                                                                                             
00037e   26e9     ADDWF     0xe9,0x1,0x0                                                                                    
000380   0e01     MOVLW     0x1                                                                                             
000382   22ea     ADDWFC    0xea,0x1,0x0                                                                                    
000384   c06b     MOVFF     0x6b,0xfef                                                                                      
000386   ffef                                                                                                               
                                                        }                                                                   D:\chen\Core\FirmWare_CT\JXY_PIC_BootLoader\bootldr.c
                                                                                                                            D:\chen\Core\FirmWare_CT\JXY_PIC_BootLoader\bootldr.c
000388   0e02     MOVLW     0x2                        if(bcount==258)                                                      D:\chen\Core\FirmWare_CT\JXY_PIC_BootLoader\bootldr.c
00038a   196c     XORWF     0x6c,0x0,0x1                                                                                    
00038c   e102     BNZ       0x392                                                                                           
00038e   0e01     MOVLW     0x1                                                                                             
000390   196d     XORWF     0x6d,0x0,0x1                                                                                    
000392   e157     BNZ       0x442                                                                                           
                                                        {                                                                   D:\chen\Core\FirmWare_CT\JXY_PIC_BootLoader\bootldr.c
000394   6ade     CLRF      0xde,0x0                     for(i=0;i<4;i++)                                                   D:\chen\Core\FirmWare_CT\JXY_PIC_BootLoader\bootldr.c
000396   6add     CLRF      0xdd,0x0                                                                                        
000398   cfde     MOVFF     0xfde,0x14                                                                                      
00039a   f014                                                                                                               
00039c   cfdd     MOVFF     0xfdd,0x15                                                                                      
00039e   f015                                                                                                               
0003a0   90d8     BCF       0xd8,0x0,0x0                                                                                    
0003a2   5015     MOVF      0x15,0x0,0x0                                                                                    
0003a4   e604     BN        0x3ae                                                                                           
0003a6   0e04     MOVLW     0x4                                                                                             
0003a8   5c14     SUBWF     0x14,0x0,0x0                                                                                    
0003aa   0e00     MOVLW     0x0                                                                                             
0003ac   5815     SUBWFB    0x15,0x0,0x0                                                                                    
0003ae   e243     BC        0x436                                                                                           
00042c   2adf     INCF      0xdf,0x1,0x0                                                                                    
00042e   0e01     MOVLW     0x1                                                                                             
000430   e301     BNC       0x434                                                                                           
000432   2adb     INCF      0xdb,0x1,0x0                                                                                    
000434   d7b1     BRA       0x398                                                                                           
                                                         {                                                                  D:\chen\Core\FirmWare_CT\JXY_PIC_BootLoader\bootldr.c
0003b0   cfde     MOVFF     0xfde,0x14     		  Flash_Write64Bytes(flashaddr+64*i,&buff[i*64]);                              D:\chen\Core\FirmWare_CT\JXY_PIC_BootLoader\bootldr.c
0003b2   f014                                                                                                               
0003b4   cfdd     MOVFF     0xfdd,0x15                                                                                      
0003b6   f015                                                                                                               
0003b8   0e06     MOVLW     0x6                                                                                             
0003ba   90d8     BCF       0xd8,0x0,0x0                                                                                    
0003bc   3614     RLCF      0x14,0x1,0x0                                                                                    
0003be   3615     RLCF      0x15,0x1,0x0                                                                                    
0003c0   06e8     DECF      0xe8,0x1,0x0                                                                                    
0003c2   e1fb     BNZ       0x3ba                                                                                           
0003c4   0e00     MOVLW     0x0                                                                                             
0003c6   2614     ADDWF     0x14,0x1,0x0                                                                                    
0003c8   0e01     MOVLW     0x1                                                                                             
0003ca   2215     ADDWFC    0x15,0x1,0x0                                                                                    
0003cc   c014     MOVFF     0x14,0xfe6                                                                                      
0003ce   ffe6                                                                                                               
0003d0   c015     MOVFF     0x15,0xfe6                                                                                      
0003d2   ffe6                                                                                                               
0003d4   0e40     MOVLW     0x40                                                                                            
0003d6   6e06     MOVWF     0x6,0x0                                                                                         
0003d8   6a07     CLRF      0x7,0x0                                                                                         
0003da   cfde     MOVFF     0xfde,0xb                                                                                       
0003dc   f00b                                                                                                               
0003de   cfdd     MOVFF     0xfdd,0xc                                                                                       
0003e0   f00c                                                                                                               
0003e2   eca0     CALL      0x540,0x0                                                                                       
0003e4   f002                                                                                                               
0003e6   c004     MOVFF     0x4,0x16                                                                                        
0003e8   f016                                                                                                               
0003ea   c005     MOVFF     0x5,0x17                                                                                        
0003ec   f017                                                                                                               
0003ee   6a18     CLRF      0x18,0x0                                                                                        
0003f0   6a19     CLRF      0x19,0x0                                                                                        
0003f2   ae17     BTFSS     0x17,0x7,0x0                                                                                    
0003f4   d002     BRA       0x3fa                                                                                           
0003f6   6818     SETF      0x18,0x0                                                                                        
0003f8   6819     SETF      0x19,0x0                                                                                        
0003fa   0e6f     MOVLW     0x6f                                                                                            
0003fc   6ee9     MOVWF     0xe9,0x0                                                                                        
0003fe   0e00     MOVLW     0x0                                                                                             
000400   6eea     MOVWF     0xea,0x0                                                                                        
000402   50ee     MOVF      0xee,0x0,0x0                                                                                    
000404   2616     ADDWF     0x16,0x1,0x0                                                                                    
000406   50ee     MOVF      0xee,0x0,0x0                                                                                    
000408   2217     ADDWFC    0x17,0x1,0x0                                                                                    
00040a   50ee     MOVF      0xee,0x0,0x0                                                                                    
00040c   2218     ADDWFC    0x18,0x1,0x0                                                                                    
00040e   50ee     MOVF      0xee,0x0,0x0                                                                                    
000410   2219     ADDWFC    0x19,0x1,0x0                                                                                    
000412   c016     MOVFF     0x16,0xfe6                                                                                      
000414   ffe6                                                                                                               
000416   c017     MOVFF     0x17,0xfe6                                                                                      
000418   ffe6                                                                                                               
00041a   c018     MOVFF     0x18,0xfe6                                                                                      
00041c   ffe6                                                                                                               
00041e   c019     MOVFF     0x19,0xfe6                                                                                      
000420   ffe6                                                                                                               
000422   de24     RCALL     0x6c                                                                                            
000424   6ef5     MOVWF     0xf5,0x0                                                                                        
000426   0e06     MOVLW     0x6                                                                                             
000428   5ee1     SUBWF     0xe1,0x1,0x0                                                                                    
00042a   50f5     MOVF      0xf5,0x0,0x0                                                                                    
                                                         }                                                                  D:\chen\Core\FirmWare_CT\JXY_PIC_BootLoader\bootldr.c
000436   0ef8     MOVLW     0xf8                         TXREG = 0xf8;                                                      D:\chen\Core\FirmWare_CT\JXY_PIC_BootLoader\bootldr.c
000438   6ead     MOVWF     0xad,0x0                                                                                        
00043a   0100     MOVLB     0x0                          bcount=0;                                                          D:\chen\Core\FirmWare_CT\JXY_PIC_BootLoader\bootldr.c
00043c   6b6c     CLRF      0x6c,0x1                                                                                        
00043e   6b6d     CLRF      0x6d,0x1                                                                                        
000440   6b6a     CLRF      0x6a,0x1                     dataflag=0;//切换为命令状态                                        D:\chen\Core\FirmWare_CT\JXY_PIC_BootLoader\bootldr.c
                                                        }                                                                   D:\chen\Core\FirmWare_CT\JXY_PIC_BootLoader\bootldr.c
                                                                                                                            D:\chen\Core\FirmWare_CT\JXY_PIC_BootLoader\bootldr.c
                                           	   }                                                                            D:\chen\Core\FirmWare_CT\JXY_PIC_BootLoader\bootldr.c
000442   d022     BRA       0x488          	   else//命令状态                                                               D:\chen\Core\FirmWare_CT\JXY_PIC_BootLoader\bootldr.c
                                           	   {                                                                            D:\chen\Core\FirmWare_CT\JXY_PIC_BootLoader\bootldr.c
000444   516b     MOVF      0x6b,0x0,0x1   		switch(rectdat)                                                                D:\chen\Core\FirmWare_CT\JXY_PIC_BootLoader\bootldr.c
000446   0ab8     XORLW     0xb8                                                                                            
000448   e013     BZ        0x470                                                                                           
00044a   0a4f     XORLW     0x4f                                                                                            
00044c   e00f     BZ        0x46c                                                                                           
00044e   0a0f     XORLW     0xf                                                                                             
000450   e006     BZ        0x45e                                                                                           
000452   0a01     XORLW     0x1                                                                                             
000454   e001     BZ        0x458                                                                                           
000456   d018     BRA       0x488                                                                                           
                                           		    {                                                                          D:\chen\Core\FirmWare_CT\JXY_PIC_BootLoader\bootldr.c
                                           		     	case 0xf9://PIC握手                                                      D:\chen\Core\FirmWare_CT\JXY_PIC_BootLoader\bootldr.c
000458   0ef9     MOVLW     0xf9           			TXREG = 0xf9;                                                                 D:\chen\Core\FirmWare_CT\JXY_PIC_BootLoader\bootldr.c
00045a   6ead     MOVWF     0xad,0x0                                                                                        
00045c   d015     BRA       0x488          			break;                                                                        D:\chen\Core\FirmWare_CT\JXY_PIC_BootLoader\bootldr.c
                                           		                                                                               D:\chen\Core\FirmWare_CT\JXY_PIC_BootLoader\bootldr.c
                                           			case 0xf8://PIC页写准备                                                       D:\chen\Core\FirmWare_CT\JXY_PIC_BootLoader\bootldr.c
00045e   0ef8     MOVLW     0xf8           			TXREG = 0xf8;                                                                 D:\chen\Core\FirmWare_CT\JXY_PIC_BootLoader\bootldr.c
000460   6ead     MOVWF     0xad,0x0                                                                                        
000462   0e01     MOVLW     0x1            			dataflag=1;//切换为数据状态                                                   D:\chen\Core\FirmWare_CT\JXY_PIC_BootLoader\bootldr.c
000464   6f6a     MOVWF     0x6a,0x1                                                                                        
000466   6b6c     CLRF      0x6c,0x1       			bcount = 0;//数据接收计数清零                                                 D:\chen\Core\FirmWare_CT\JXY_PIC_BootLoader\bootldr.c
000468   6b6d     CLRF      0x6d,0x1                                                                                        
00046a   d00e     BRA       0x488          			break;                                                                        D:\chen\Core\FirmWare_CT\JXY_PIC_BootLoader\bootldr.c
                                                                                                                            D:\chen\Core\FirmWare_CT\JXY_PIC_BootLoader\bootldr.c
                                           			case 0xf7://PIC版本                                                           D:\chen\Core\FirmWare_CT\JXY_PIC_BootLoader\bootldr.c
00046c   6aad     CLRF      0xad,0x0       			TXREG = 0x00;                                                                 D:\chen\Core\FirmWare_CT\JXY_PIC_BootLoader\bootldr.c
00046e   d00c     BRA       0x488          			break;                                                                        D:\chen\Core\FirmWare_CT\JXY_PIC_BootLoader\bootldr.c
                                           	                                                                                D:\chen\Core\FirmWare_CT\JXY_PIC_BootLoader\bootldr.c
                                           		      case 0xb8: // 退出更新状态                                               D:\chen\Core\FirmWare_CT\JXY_PIC_BootLoader\bootldr.c
000470   0ee7     MOVLW     0xe7           		        TXREG = 0xe7;//给主控板回应一字节0xe7                                  D:\chen\Core\FirmWare_CT\JXY_PIC_BootLoader\bootldr.c
000472   6ead     MOVWF     0xad,0x0                                                                                        
000474   6a14     CLRF      0x14,0x0       		        (*((void(*)(void))PROG_START))(); //运行新程序                         D:\chen\Core\FirmWare_CT\JXY_PIC_BootLoader\bootldr.c
000476   0e08     MOVLW     0x8                                                                                             
000478   6e15     MOVWF     0x15,0x0                                                                                        
00047a   d004     BRA       0x484                                                                                           
00047c   c015     MOVFF     0x15,0xffa                                                                                      
00047e   fffa                                                                                                               
000480   5014     MOVF      0x14,0x0,0x0                                                                                    
000482   6ef9     MOVWF     0xf9,0x0                                                                                        
000484   dffb     RCALL     0x47c                                                                                           
000486   d000     BRA       0x488          		      break;                                                                   D:\chen\Core\FirmWare_CT\JXY_PIC_BootLoader\bootldr.c
                                           		    }                                                                          D:\chen\Core\FirmWare_CT\JXY_PIC_BootLoader\bootldr.c
                                           	   }                                                                            D:\chen\Core\FirmWare_CT\JXY_PIC_BootLoader\bootldr.c
                                             }                                                                              D:\chen\Core\FirmWare_CT\JXY_PIC_BootLoader\bootldr.c
00048a   6ef5     MOVWF     0xf5,0x0       }                                                                                D:\chen\Core\FirmWare_CT\JXY_PIC_BootLoader\bootldr.c
00048c   0e02     MOVLW     0x2                                                                                             
00048e   5ce1     SUBWF     0xe1,0x0,0x0                                                                                    
000490   e202     BC        0x496                                                                                           
000492   6ae1     CLRF      0xe1,0x0                                                                                        
000494   52e5     MOVF      0xe5,0x1,0x0                                                                                    
000496   6ee1     MOVWF     0xe1,0x0                                                                                        
000498   50f5     MOVF      0xf5,0x0,0x0                                                                                    
00049a   52e5     MOVF      0xe5,0x1,0x0                                                                                    
00049c   cfe7     MOVFF     0xfe7,0xfd9                                                                                     
00049e   ffd9                                                                                                               
0004a0   0012     RETURN    0x0                                                                                             
                                                                                                                            D:\chen\Core\FirmWare_CT\JXY_PIC_BootLoader\bootldr.c
                                           ;	RCS Header $Id: aarg.asm,v 1.2 2004/10/01 19:13:22 GrosbaJ Exp $              C:\MCC18\SRC\TRADIT~1\MATH\aarg.asm
                                                                                                                           C:\MCC18\SRC\TRADIT~1\MATH\aarg.asm
                                           ;       CMATH18 DATA DEFINITION FILE                                            C:\MCC18\SRC\TRADIT~1\MATH\aarg.asm
                                                                                                                           C:\MCC18\SRC\TRADIT~1\MATH\aarg.asm
                                           ;******************************************************************************* C:\MCC18\SRC\TRADIT~1\MATH\aarg.asm
                                           ;   VARIABLE ALLOCATION - Core math library routines                            C:\MCC18\SRC\TRADIT~1\MATH\aarg.asm
                                           ;******************************************************************************* C:\MCC18\SRC\TRADIT~1\MATH\aarg.asm
                                                                                                                           C:\MCC18\SRC\TRADIT~1\MATH\aarg.asm
                                           MATH_DATA      UDATA_ACS                                                        C:\MCC18\SRC\TRADIT~1\MATH\aarg.asm
                                                                                                                           C:\MCC18\SRC\TRADIT~1\MATH\aarg.asm
                                           REMB3                                                                           C:\MCC18\SRC\TRADIT~1\MATH\aarg.asm
                                           AARGB7		RES 1                                                                   C:\MCC18\SRC\TRADIT~1\MATH\aarg.asm
                                           REMB2                                                                           C:\MCC18\SRC\TRADIT~1\MATH\aarg.asm
                                           AARGB6		RES 1                                                                   C:\MCC18\SRC\TRADIT~1\MATH\aarg.asm
                                           REMB1                                                                           C:\MCC18\SRC\TRADIT~1\MATH\aarg.asm
                                           AARGB5		RES 1                                                                   C:\MCC18\SRC\TRADIT~1\MATH\aarg.asm
                                           REMB0                                                                           C:\MCC18\SRC\TRADIT~1\MATH\aarg.asm
                                           AARGB4		RES 1                                                                   C:\MCC18\SRC\TRADIT~1\MATH\aarg.asm
                                           AARGB3		RES 1                                                                   C:\MCC18\SRC\TRADIT~1\MATH\aarg.asm
                                           AARGB2		RES 1                                                                   C:\MCC18\SRC\TRADIT~1\MATH\aarg.asm
                                           AARGB1		RES 1                                                                   C:\MCC18\SRC\TRADIT~1\MATH\aarg.asm
                                           AARGB0		RES 1                                                                   C:\MCC18\SRC\TRADIT~1\MATH\aarg.asm
                                                                                                                           C:\MCC18\SRC\TRADIT~1\MATH\aarg.asm
                                           AEXP		RES 1       ; 8 bit biased exponent for argument A                        C:\MCC18\SRC\TRADIT~1\MATH\aarg.asm
                                                                                                                           C:\MCC18\SRC\TRADIT~1\MATH\aarg.asm
                                           	GLOBAL	AARGB0, AARGB1, AARGB2, AARGB3                                          C:\MCC18\SRC\TRADIT~1\MATH\aarg.asm
                                                   GLOBAL  AARGB4, AARGB5, AARGB6, AARGB7                                  C:\MCC18\SRC\TRADIT~1\MATH\aarg.asm
                                           	GLOBAL  AEXP                                                                   C:\MCC18\SRC\TRADIT~1\MATH\aarg.asm
                                           	GLOBAL  REMB3, REMB2, REMB1, REMB0                                             C:\MCC18\SRC\TRADIT~1\MATH\aarg.asm
                                                                                                                           C:\MCC18\SRC\TRADIT~1\MATH\aarg.asm
                                                   END                                                                     C:\MCC18\SRC\TRADIT~1\MATH\aarg.asm
                                           ;	RCS Header $Id: barg.asm,v 1.2 2004/10/01 19:13:22 GrosbaJ Exp $              C:\MCC18\SRC\TRADIT~1\MATH\barg.asm
                                                                                                                           C:\MCC18\SRC\TRADIT~1\MATH\barg.asm
                                           ;       CMATH18 DATA DEFINITION FILE                                            C:\MCC18\SRC\TRADIT~1\MATH\barg.asm
                                                                                                                           C:\MCC18\SRC\TRADIT~1\MATH\barg.asm
                                           ;******************************************************************************* C:\MCC18\SRC\TRADIT~1\MATH\barg.asm
                                           ;   VARIABLE ALLOCATION - Core math library routines                            C:\MCC18\SRC\TRADIT~1\MATH\barg.asm
                                           ;******************************************************************************* C:\MCC18\SRC\TRADIT~1\MATH\barg.asm
                                                                                                                           C:\MCC18\SRC\TRADIT~1\MATH\barg.asm
                                           MATH_DATA      UDATA_ACS                                                        C:\MCC18\SRC\TRADIT~1\MATH\barg.asm
                                                                                                                           C:\MCC18\SRC\TRADIT~1\MATH\barg.asm
                                           BARGB3		RES 1                                                                   C:\MCC18\SRC\TRADIT~1\MATH\barg.asm
                                           BARGB2		RES 1                                                                   C:\MCC18\SRC\TRADIT~1\MATH\barg.asm
                                           BARGB1		RES 1                                                                   C:\MCC18\SRC\TRADIT~1\MATH\barg.asm
                                           BARGB0		RES 1       ; most significant byte of argument B                       C:\MCC18\SRC\TRADIT~1\MATH\barg.asm
                                                                                                                           C:\MCC18\SRC\TRADIT~1\MATH\barg.asm
                                           BEXP		RES 1       ; 8 bit biased exponent for argument B                        C:\MCC18\SRC\TRADIT~1\MATH\barg.asm
                                                                                                                           C:\MCC18\SRC\TRADIT~1\MATH\barg.asm
                                                   GLOBAL  BARGB3, BARGB2, BARGB1, BARGB0                                  C:\MCC18\SRC\TRADIT~1\MATH\barg.asm
                                                   GLOBAL  BEXP                                                            C:\MCC18\SRC\TRADIT~1\MATH\barg.asm
                                                                                                                           C:\MCC18\SRC\TRADIT~1\MATH\barg.asm
                                                   END                                                                     C:\MCC18\SRC\TRADIT~1\MATH\barg.asm
                                                   LIST P=18F4550                                                           C:\MCC18\SRC\TRADIT~1\PROC\p18f4550.asm
                                                   LIST                                                                     C:\MCC18\SRC\TRADIT~1\PROC\p18f4550.asm
                                                   END                                                                      C:\MCC18\SRC\TRADIT~1\PROC\p18f4550.asm
                                           ;	RCS Header $Id: cmath18.asm,v 1.4 2004/10/01 19:13:22 GrosbaJ Exp $           C:\MCC18\SRC\TRADIT~1\MATH\cmath18.asm
                                                                                                                           C:\MCC18\SRC\TRADIT~1\MATH\cmath18.asm
                                           ;       CMATH18 DATA DEFINITION FILE                                            C:\MCC18\SRC\TRADIT~1\MATH\cmath18.asm
                                                                                                                           C:\MCC18\SRC\TRADIT~1\MATH\cmath18.asm
                                           ;******************************************************************************* C:\MCC18\SRC\TRADIT~1\MATH\cmath18.asm
                                           ;   VARIABLE ALLOCATION - Core math library routines                            C:\MCC18\SRC\TRADIT~1\MATH\cmath18.asm
                                           ;******************************************************************************* C:\MCC18\SRC\TRADIT~1\MATH\cmath18.asm
                                                                                                                           C:\MCC18\SRC\TRADIT~1\MATH\cmath18.asm
                                           MATH_DATA      UDATA_ACS                                                        C:\MCC18\SRC\TRADIT~1\MATH\cmath18.asm
                                                                                                                           C:\MCC18\SRC\TRADIT~1\MATH\cmath18.asm
                                           SIGN		RES 1       ; save location for sign in MSB                               C:\MCC18\SRC\TRADIT~1\MATH\cmath18.asm
                                           FPFLAGSbits                                                                     C:\MCC18\SRC\TRADIT~1\MATH\cmath18.asm
                                           FPFLAGS		RES 1       ; floating point library exception flags                   C:\MCC18\SRC\TRADIT~1\MATH\cmath18.asm
                                                                                                                           C:\MCC18\SRC\TRADIT~1\MATH\cmath18.asm
                                                   GLOBAL  SIGN, FPFLAGS, FPFLAGSbits                                      C:\MCC18\SRC\TRADIT~1\MATH\cmath18.asm
                                           	                                                                               C:\MCC18\SRC\TRADIT~1\MATH\cmath18.asm
                                                   END                                                                     C:\MCC18\SRC\TRADIT~1\MATH\cmath18.asm
                                           ;	RCS Header $Id: fxm1616s.asm,v 1.2 2004/10/01 19:13:23 GrosbaJ Exp $          C:\MCC18\SRC\TRADIT~1\MATH\fxm1616s.asm
                                                                                                                           C:\MCC18\SRC\TRADIT~1\MATH\fxm1616s.asm
                                           ;	$Revision: 1.2 $                                                              C:\MCC18\SRC\TRADIT~1\MATH\fxm1616s.asm
                                                                                                                           C:\MCC18\SRC\TRADIT~1\MATH\fxm1616s.asm
                                           	include <P18CXXX.INC>		; general Golden Gate definitions                       C:\MCC18\SRC\TRADIT~1\MATH\fxm1616s.asm
                                                                                                                           C:\MCC18\SRC\TRADIT~1\MATH\fxm1616s.asm
                                           	include <CMATH18.INC>		; Math library definitions                              C:\MCC18\SRC\TRADIT~1\MATH\fxm1616s.asm
                                                                                                                           C:\MCC18\SRC\TRADIT~1\MATH\fxm1616s.asm
                                           	include <AARG.INC>		; AARG declarations                                        C:\MCC18\SRC\TRADIT~1\MATH\fxm1616s.asm
                                                   LIST                                                                     C:\MCC18\MPASM\P18CXXX.INC
                                           ; P18CXXX.INC  Standard Header File, Version 1.00   Microchip Technology, Inc.   C:\MCC18\MPASM\P18CXXX.INC
                                                   LIST                                                                     C:\MCC18\MPASM\P18C452.INC
                                           ; P18C452.INC  Standard Header File, Version 0.12   Microchip Technology, Inc.   C:\MCC18\MPASM\P18C452.INC
                                                   LIST                                                                     C:\MCC18\MPASM\P18C452.INC
                                             ENDIF                                                                          C:\MCC18\MPASM\P18CXXX.INC
                                             IFDEF __18C242                                                                 C:\MCC18\MPASM\P18CXXX.INC
                                                INCLUDE <P18C242.INC>                                                       C:\MCC18\MPASM\P18CXXX.INC
                                             ENDIF                                                                          C:\MCC18\MPASM\P18CXXX.INC
                                             IFDEF __18F242                                                                 C:\MCC18\MPASM\P18CXXX.INC
                                                INCLUDE <P18F242.INC>                                                       C:\MCC18\MPASM\P18CXXX.INC
                                             ENDIF                                                                          C:\MCC18\MPASM\P18CXXX.INC
                                             IFDEF __18F248                                                                 C:\MCC18\MPASM\P18CXXX.INC
                                                INCLUDE <P18F248.INC>                                                       C:\MCC18\MPASM\P18CXXX.INC
                                             ENDIF                                                                          C:\MCC18\MPASM\P18CXXX.INC
                                             IFDEF __18C252                                                                 C:\MCC18\MPASM\P18CXXX.INC
                                                INCLUDE <P18C252.INC>                                                       C:\MCC18\MPASM\P18CXXX.INC
                                             ENDIF                                                                          C:\MCC18\MPASM\P18CXXX.INC
                                             IFDEF __18F252                                                                 C:\MCC18\MPASM\P18CXXX.INC
                                                INCLUDE <P18F252.INC>                                                       C:\MCC18\MPASM\P18CXXX.INC
                                             ENDIF                                                                          C:\MCC18\MPASM\P18CXXX.INC
                                             IFDEF __18F258                                                                 C:\MCC18\MPASM\P18CXXX.INC
                                                INCLUDE <P18F258.INC>                                                       C:\MCC18\MPASM\P18CXXX.INC
                                             ENDIF                                                                          C:\MCC18\MPASM\P18CXXX.INC
                                             IFDEF __18C442                                                                 C:\MCC18\MPASM\P18CXXX.INC
                                                INCLUDE <P18C442.INC>                                                       C:\MCC18\MPASM\P18CXXX.INC
                                             ENDIF                                                                          C:\MCC18\MPASM\P18CXXX.INC
                                             IFDEF __18F442                                                                 C:\MCC18\MPASM\P18CXXX.INC
                                                INCLUDE <P18F442.INC>                                                       C:\MCC18\MPASM\P18CXXX.INC
                                             ENDIF                                                                          C:\MCC18\MPASM\P18CXXX.INC
                                             IFDEF __18F448                                                                 C:\MCC18\MPASM\P18CXXX.INC
                                                INCLUDE <P18F448.INC>                                                       C:\MCC18\MPASM\P18CXXX.INC
                                             ENDIF                                                                          C:\MCC18\MPASM\P18CXXX.INC
                                             IFDEF __18C452                                                                 C:\MCC18\MPASM\P18CXXX.INC
                                                INCLUDE <P18C452.INC>                                                       C:\MCC18\MPASM\P18CXXX.INC
                                             ENDIF                                                                          C:\MCC18\MPASM\P18CXXX.INC
                                             IFDEF __18F452                                                                 C:\MCC18\MPASM\P18CXXX.INC
                                                INCLUDE <P18F452.INC>                                                       C:\MCC18\MPASM\P18CXXX.INC
                                             ENDIF                                                                          C:\MCC18\MPASM\P18CXXX.INC
                                             IFDEF __18F458                                                                 C:\MCC18\MPASM\P18CXXX.INC
                                                INCLUDE <P18F458.INC>                                                       C:\MCC18\MPASM\P18CXXX.INC
                                             ENDIF                                                                          C:\MCC18\MPASM\P18CXXX.INC
                                             IFDEF __18C601                                                                 C:\MCC18\MPASM\P18CXXX.INC
                                                INCLUDE <P18C601.INC>                                                       C:\MCC18\MPASM\P18CXXX.INC
                                             ENDIF                                                                          C:\MCC18\MPASM\P18CXXX.INC
                                             IFDEF __18C658                                                                 C:\MCC18\MPASM\P18CXXX.INC
                                                INCLUDE <P18C658.INC>                                                       C:\MCC18\MPASM\P18CXXX.INC
                                             ENDIF                                                                          C:\MCC18\MPASM\P18CXXX.INC
                                             IFDEF __18C801                                                                 C:\MCC18\MPASM\P18CXXX.INC
                                                INCLUDE <P18C801.INC>                                                       C:\MCC18\MPASM\P18CXXX.INC
                                             ENDIF                                                                          C:\MCC18\MPASM\P18CXXX.INC
                                             IFDEF __18C858                                                                 C:\MCC18\MPASM\P18CXXX.INC
                                                INCLUDE <P18C858.INC>                                                       C:\MCC18\MPASM\P18CXXX.INC
                                             ENDIF                                                                          C:\MCC18\MPASM\P18CXXX.INC
                                             IFDEF __18F1220                                                                C:\MCC18\MPASM\P18CXXX.INC
                                                INCLUDE <P18F1220.INC>                                                      C:\MCC18\MPASM\P18CXXX.INC
                                             ENDIF                                                                          C:\MCC18\MPASM\P18CXXX.INC
                                             IFDEF __18F1320                                                                C:\MCC18\MPASM\P18CXXX.INC
                                                INCLUDE <P18F1320.INC>                                                      C:\MCC18\MPASM\P18CXXX.INC
                                             ENDIF                                                                          C:\MCC18\MPASM\P18CXXX.INC
                                             IFDEF __18F2220                                                                C:\MCC18\MPASM\P18CXXX.INC
                                                INCLUDE <P18F2220.INC>                                                      C:\MCC18\MPASM\P18CXXX.INC
                                             ENDIF                                                                          C:\MCC18\MPASM\P18CXXX.INC
                                             IFDEF __18F2320                                                                C:\MCC18\MPASM\P18CXXX.INC
                                                INCLUDE <P18F2320.INC>                                                      C:\MCC18\MPASM\P18CXXX.INC
                                             ENDIF                                                                          C:\MCC18\MPASM\P18CXXX.INC
                                             IFDEF __18F4220                                                                C:\MCC18\MPASM\P18CXXX.INC
                                                INCLUDE <P18F4220.INC>                                                      C:\MCC18\MPASM\P18CXXX.INC
                                             ENDIF                                                                          C:\MCC18\MPASM\P18CXXX.INC
                                             IFDEF __18F4320                                                                C:\MCC18\MPASM\P18CXXX.INC
                                                INCLUDE <P18F4320.INC>                                                      C:\MCC18\MPASM\P18CXXX.INC
                                             ENDIF                                                                          C:\MCC18\MPASM\P18CXXX.INC
                                             IFDEF __18F6520                                                                C:\MCC18\MPASM\P18CXXX.INC
                                                INCLUDE <P18F6520.INC>                                                      C:\MCC18\MPASM\P18CXXX.INC
                                             ENDIF                                                                          C:\MCC18\MPASM\P18CXXX.INC
                                             IFDEF __18F6620                                                                C:\MCC18\MPASM\P18CXXX.INC
                                                INCLUDE <P18F6620.INC>                                                      C:\MCC18\MPASM\P18CXXX.INC
                                             ENDIF                                                                          C:\MCC18\MPASM\P18CXXX.INC
                                             IFDEF __18F6720                                                                C:\MCC18\MPASM\P18CXXX.INC
                                                INCLUDE <P18F6720.INC>                                                      C:\MCC18\MPASM\P18CXXX.INC
                                             ENDIF                                                                          C:\MCC18\MPASM\P18CXXX.INC
                                             IFDEF __18F8520                                                                C:\MCC18\MPASM\P18CXXX.INC
                                                INCLUDE <P18F8520.INC>                                                      C:\MCC18\MPASM\P18CXXX.INC
                                             ENDIF                                                                          C:\MCC18\MPASM\P18CXXX.INC
                                             IFDEF __18F8620                                                                C:\MCC18\MPASM\P18CXXX.INC
                                                INCLUDE <P18F8620.INC>                                                      C:\MCC18\MPASM\P18CXXX.INC
                                             ENDIF                                                                          C:\MCC18\MPASM\P18CXXX.INC
                                             IFDEF __18F8720                                                                C:\MCC18\MPASM\P18CXXX.INC
                                                INCLUDE <P18F8720.INC>                                                      C:\MCC18\MPASM\P18CXXX.INC
                                             ENDIF                                                                          C:\MCC18\MPASM\P18CXXX.INC
                                             IFDEF __18F2439                                                                C:\MCC18\MPASM\P18CXXX.INC
                                                INCLUDE <P18F2439.INC>                                                      C:\MCC18\MPASM\P18CXXX.INC
                                             ENDIF                                                                          C:\MCC18\MPASM\P18CXXX.INC
                                             IFDEF __18F2539                                                                C:\MCC18\MPASM\P18CXXX.INC
                                                INCLUDE <P18F2539.INC>                                                      C:\MCC18\MPASM\P18CXXX.INC
                                             ENDIF                                                                          C:\MCC18\MPASM\P18CXXX.INC
                                             IFDEF __18F4439                                                                C:\MCC18\MPASM\P18CXXX.INC
                                                INCLUDE <P18F4439.INC>                                                      C:\MCC18\MPASM\P18CXXX.INC
                                             ENDIF                                                                          C:\MCC18\MPASM\P18CXXX.INC
                                             IFDEF __18F4539                                                                C:\MCC18\MPASM\P18CXXX.INC
                                                INCLUDE <P18F4539.INC>                                                      C:\MCC18\MPASM\P18CXXX.INC
                                             ENDIF                                                                          C:\MCC18\MPASM\P18CXXX.INC
                                             IFDEF __18F8680                                                                C:\MCC18\MPASM\P18CXXX.INC
                                                INCLUDE <P18F8680.INC>                                                      C:\MCC18\MPASM\P18CXXX.INC
                                             ENDIF                                                                          C:\MCC18\MPASM\P18CXXX.INC
                                             IFDEF __18F6680                                                                C:\MCC18\MPASM\P18CXXX.INC
                                                INCLUDE <P18F6680.INC>                                                      C:\MCC18\MPASM\P18CXXX.INC
                                             ENDIF                                                                          C:\MCC18\MPASM\P18CXXX.INC
                                             IFDEF __18F8585                                                                C:\MCC18\MPASM\P18CXXX.INC
                                                INCLUDE <P18F8585.INC>                                                      C:\MCC18\MPASM\P18CXXX.INC
                                             ENDIF                                                                          C:\MCC18\MPASM\P18CXXX.INC
                                             IFDEF __18F6585                                                                C:\MCC18\MPASM\P18CXXX.INC
                                                INCLUDE <P18F6585.INC>                                                      C:\MCC18\MPASM\P18CXXX.INC
                                             ENDIF                                                                          C:\MCC18\MPASM\P18CXXX.INC
                                             IFDEF __18F6621                                                                C:\MCC18\MPASM\P18CXXX.INC
                                                INCLUDE <P18F6621.INC>                                                      C:\MCC18\MPASM\P18CXXX.INC
                                             ENDIF                                                                          C:\MCC18\MPASM\P18CXXX.INC
                                             IFDEF __18F8621                                                                C:\MCC18\MPASM\P18CXXX.INC
                                                INCLUDE <P18F8621.INC>                                                      C:\MCC18\MPASM\P18CXXX.INC
                                             ENDIF                                                                          C:\MCC18\MPASM\P18CXXX.INC
                                             IFDEF __18F6525                                                                C:\MCC18\MPASM\P18CXXX.INC
                                                INCLUDE <P18F6525.INC>                                                      C:\MCC18\MPASM\P18CXXX.INC
                                             ENDIF                                                                          C:\MCC18\MPASM\P18CXXX.INC
                                             IFDEF __18F8525                                                                C:\MCC18\MPASM\P18CXXX.INC
                                                INCLUDE <P18F8525.INC>                                                      C:\MCC18\MPASM\P18CXXX.INC
                                             ENDIF                                                                          C:\MCC18\MPASM\P18CXXX.INC
                                             IFDEF __18F2331                                                                C:\MCC18\MPASM\P18CXXX.INC
                                                INCLUDE <P18F2331.INC>                                                      C:\MCC18\MPASM\P18CXXX.INC
                                             ENDIF                                                                          C:\MCC18\MPASM\P18CXXX.INC
                                             IFDEF __18F2431                                                                C:\MCC18\MPASM\P18CXXX.INC
                                                INCLUDE <P18F2431.INC>                                                      C:\MCC18\MPASM\P18CXXX.INC
                                             ENDIF                                                                          C:\MCC18\MPASM\P18CXXX.INC
                                             IFDEF __18F4331                                                                C:\MCC18\MPASM\P18CXXX.INC
                                                INCLUDE <P18F4331.INC>                                                      C:\MCC18\MPASM\P18CXXX.INC
                                             ENDIF                                                                          C:\MCC18\MPASM\P18CXXX.INC
                                             IFDEF __18F4431                                                                C:\MCC18\MPASM\P18CXXX.INC
                                                INCLUDE <P18F4431.INC>                                                      C:\MCC18\MPASM\P18CXXX.INC
                                             ENDIF                                                                          C:\MCC18\MPASM\P18CXXX.INC
                                             IFDEF __18F2515                                                                C:\MCC18\MPASM\P18CXXX.INC
                                                INCLUDE <P18F2515.INC>                                                      C:\MCC18\MPASM\P18CXXX.INC
                                             ENDIF                                                                          C:\MCC18\MPASM\P18CXXX.INC
                                             IFDEF __18F2525                                                                C:\MCC18\MPASM\P18CXXX.INC
                                                INCLUDE <P18F2525.INC>                                                      C:\MCC18\MPASM\P18CXXX.INC
                                             ENDIF                                                                          C:\MCC18\MPASM\P18CXXX.INC
                                             IFDEF __18F2610                                                                C:\MCC18\MPASM\P18CXXX.INC
                                                INCLUDE <P18F2610.INC>                                                      C:\MCC18\MPASM\P18CXXX.INC
                                             ENDIF                                                                          C:\MCC18\MPASM\P18CXXX.INC
                                             IFDEF __18F2620                                                                C:\MCC18\MPASM\P18CXXX.INC
                                                INCLUDE <P18F2620.INC>                                                      C:\MCC18\MPASM\P18CXXX.INC
                                             ENDIF                                                                          C:\MCC18\MPASM\P18CXXX.INC
                                             IFDEF __18F4515                                                                C:\MCC18\MPASM\P18CXXX.INC
                                                INCLUDE <P18F4515.INC>                                                      C:\MCC18\MPASM\P18CXXX.INC
                                             ENDIF                                                                          C:\MCC18\MPASM\P18CXXX.INC
                                             IFDEF __18F4525                                                                C:\MCC18\MPASM\P18CXXX.INC
                                                INCLUDE <P18F4525.INC>                                                      C:\MCC18\MPASM\P18CXXX.INC
                                             ENDIF                                                                          C:\MCC18\MPASM\P18CXXX.INC
                                             IFDEF __18F4610                                                                C:\MCC18\MPASM\P18CXXX.INC
                                                INCLUDE <P18F4610.INC>                                                      C:\MCC18\MPASM\P18CXXX.INC
                                             ENDIF                                                                          C:\MCC18\MPASM\P18CXXX.INC
                                             IFDEF __18F4620                                                                C:\MCC18\MPASM\P18CXXX.INC
                                                INCLUDE <P18F4620.INC>                                                      C:\MCC18\MPASM\P18CXXX.INC
                                             ENDIF                                                                          C:\MCC18\MPASM\P18CXXX.INC
                                             IFDEF __18F6410                                                                C:\MCC18\MPASM\P18CXXX.INC
                                                INCLUDE <P18F6410.INC>                                                      C:\MCC18\MPASM\P18CXXX.INC
                                             ENDIF                                                                          C:\MCC18\MPASM\P18CXXX.INC
                                             IFDEF __18F6490                                                                C:\MCC18\MPASM\P18CXXX.INC
                                                INCLUDE <P18F6490.INC>                                                      C:\MCC18\MPASM\P18CXXX.INC
                                             ENDIF                                                                          C:\MCC18\MPASM\P18CXXX.INC
                                             IFDEF __18F8410                                                                C:\MCC18\MPASM\P18CXXX.INC
                                                INCLUDE <P18F8410.INC>                                                      C:\MCC18\MPASM\P18CXXX.INC
                                             ENDIF                                                                          C:\MCC18\MPASM\P18CXXX.INC
                                             IFDEF __18F8490                                                                C:\MCC18\MPASM\P18CXXX.INC
                                                INCLUDE <P18F8490.INC>                                                      C:\MCC18\MPASM\P18CXXX.INC
                                             ENDIF                                                                          C:\MCC18\MPASM\P18CXXX.INC
                                             IFDEF __18F2585                                                                C:\MCC18\MPASM\P18CXXX.INC
                                                INCLUDE <P18F2585.INC>                                                      C:\MCC18\MPASM\P18CXXX.INC
                                             ENDIF                                                                          C:\MCC18\MPASM\P18CXXX.INC
                                             IFDEF __18F2680                                                                C:\MCC18\MPASM\P18CXXX.INC
                                                INCLUDE <P18F2680.INC>                                                      C:\MCC18\MPASM\P18CXXX.INC
                                             ENDIF                                                                          C:\MCC18\MPASM\P18CXXX.INC
                                             IFDEF __18F2681                                                                C:\MCC18\MPASM\P18CXXX.INC
                                                INCLUDE <P18F2681.INC>                                                      C:\MCC18\MPASM\P18CXXX.INC
                                             ENDIF                                                                          C:\MCC18\MPASM\P18CXXX.INC
                                             IFDEF __18F4585                                                                C:\MCC18\MPASM\P18CXXX.INC
                                                INCLUDE <P18F4585.INC>                                                      C:\MCC18\MPASM\P18CXXX.INC
                                             ENDIF                                                                          C:\MCC18\MPASM\P18CXXX.INC
                                             IFDEF __18F4680                                                                C:\MCC18\MPASM\P18CXXX.INC
                                                INCLUDE <P18F4680.INC>                                                      C:\MCC18\MPASM\P18CXXX.INC
                                             ENDIF                                                                          C:\MCC18\MPASM\P18CXXX.INC
                                             IFDEF __18F4681                                                                C:\MCC18\MPASM\P18CXXX.INC
                                                INCLUDE <P18F4681.INC>                                                      C:\MCC18\MPASM\P18CXXX.INC
                                             ENDIF                                                                          C:\MCC18\MPASM\P18CXXX.INC
                                             IFDEF __18F2510                                                                C:\MCC18\MPASM\P18CXXX.INC
                                                INCLUDE <P18F2510.INC>                                                      C:\MCC18\MPASM\P18CXXX.INC
                                             ENDIF                                                                          C:\MCC18\MPASM\P18CXXX.INC
                                             IFDEF __18F2520                                                                C:\MCC18\MPASM\P18CXXX.INC
                                                INCLUDE <P18F2520.INC>                                                      C:\MCC18\MPASM\P18CXXX.INC
                                             ENDIF                                                                          C:\MCC18\MPASM\P18CXXX.INC
                                             IFDEF __18F4510                                                                C:\MCC18\MPASM\P18CXXX.INC
                                                INCLUDE <P18F4510.INC>                                                      C:\MCC18\MPASM\P18CXXX.INC
                                             ENDIF                                                                          C:\MCC18\MPASM\P18CXXX.INC
                                             IFDEF __18F4520                                                                C:\MCC18\MPASM\P18CXXX.INC
                                                INCLUDE <P18F4520.INC>                                                      C:\MCC18\MPASM\P18CXXX.INC
                                             ENDIF                                                                          C:\MCC18\MPASM\P18CXXX.INC
                                             IFDEF __18F2455                                                                C:\MCC18\MPASM\P18CXXX.INC
                                                INCLUDE <P18F2455.INC>                                                      C:\MCC18\MPASM\P18CXXX.INC
                                             ENDIF                                                                          C:\MCC18\MPASM\P18CXXX.INC
                                             IFDEF __18F2550                                                                C:\MCC18\MPASM\P18CXXX.INC
                                                INCLUDE <P18F2550.INC>                                                      C:\MCC18\MPASM\P18CXXX.INC
                                             ENDIF                                                                          C:\MCC18\MPASM\P18CXXX.INC
                                             IFDEF __18F4455                                                                C:\MCC18\MPASM\P18CXXX.INC
                                                INCLUDE <P18F4455.INC>                                                      C:\MCC18\MPASM\P18CXXX.INC
                                             ENDIF                                                                          C:\MCC18\MPASM\P18CXXX.INC
                                             IFDEF __18F4550                                                                C:\MCC18\MPASM\P18CXXX.INC
                                                INCLUDE <P18F4550.INC>                                                      C:\MCC18\MPASM\P18CXXX.INC
                                             ENDIF                                                                          C:\MCC18\MPASM\P18CXXX.INC
                                             IFDEF __18F2410                                                                C:\MCC18\MPASM\P18CXXX.INC
                                                INCLUDE <P18F2410.INC>                                                      C:\MCC18\MPASM\P18CXXX.INC
                                             ENDIF                                                                          C:\MCC18\MPASM\P18CXXX.INC
                                             IFDEF __18F2420                                                                C:\MCC18\MPASM\P18CXXX.INC
                                                INCLUDE <P18F2420.INC>                                                      C:\MCC18\MPASM\P18CXXX.INC
                                             ENDIF                                                                          C:\MCC18\MPASM\P18CXXX.INC
                                             IFDEF __18F4410                                                                C:\MCC18\MPASM\P18CXXX.INC
                                                INCLUDE <P18F4410.INC>                                                      C:\MCC18\MPASM\P18CXXX.INC
                                             ENDIF                                                                          C:\MCC18\MPASM\P18CXXX.INC
                                             IFDEF __18F4420                                                                C:\MCC18\MPASM\P18CXXX.INC
                                                INCLUDE <P18F4420.INC>                                                      C:\MCC18\MPASM\P18CXXX.INC
                                             ENDIF                                                                          C:\MCC18\MPASM\P18CXXX.INC
                                             IFDEF __18F2480                                                                C:\MCC18\MPASM\P18CXXX.INC
                                                INCLUDE <P18F2480.INC>                                                      C:\MCC18\MPASM\P18CXXX.INC
                                             ENDIF                                                                          C:\MCC18\MPASM\P18CXXX.INC
                                             IFDEF __18F2580                                                                C:\MCC18\MPASM\P18CXXX.INC
                                                INCLUDE <P18F2580.INC>                                                      C:\MCC18\MPASM\P18CXXX.INC
                                             ENDIF                                                                          C:\MCC18\MPASM\P18CXXX.INC
                                             IFDEF __18F4480                                                                C:\MCC18\MPASM\P18CXXX.INC
                                                INCLUDE <P18F4480.INC>                                                      C:\MCC18\MPASM\P18CXXX.INC
                                             ENDIF                                                                          C:\MCC18\MPASM\P18CXXX.INC
                                             IFDEF __18F4580                                                                C:\MCC18\MPASM\P18CXXX.INC
                                                INCLUDE <P18F4580.INC>                                                      C:\MCC18\MPASM\P18CXXX.INC
                                             ENDIF                                                                          C:\MCC18\MPASM\P18CXXX.INC
                                             IFDEF __18F6310                                                                C:\MCC18\MPASM\P18CXXX.INC
                                                INCLUDE <P18F6310.INC>                                                      C:\MCC18\MPASM\P18CXXX.INC
                                             ENDIF                                                                          C:\MCC18\MPASM\P18CXXX.INC
                                             IFDEF __18F6390                                                                C:\MCC18\MPASM\P18CXXX.INC
                                                INCLUDE <P18F6390.INC>                                                      C:\MCC18\MPASM\P18CXXX.INC
                                             ENDIF                                                                          C:\MCC18\MPASM\P18CXXX.INC
                                             IFDEF __18F8310                                                                C:\MCC18\MPASM\P18CXXX.INC
                                                INCLUDE <P18F8310.INC>                                                      C:\MCC18\MPASM\P18CXXX.INC
                                             ENDIF                                                                          C:\MCC18\MPASM\P18CXXX.INC
                                             IFDEF __18F8390                                                                C:\MCC18\MPASM\P18CXXX.INC
                                                INCLUDE <P18F8390.INC>                                                      C:\MCC18\MPASM\P18CXXX.INC
                                             ENDIF                                                                          C:\MCC18\MPASM\P18CXXX.INC
                                             IFDEF __18F6627                                                                C:\MCC18\MPASM\P18CXXX.INC
                                                INCLUDE <P18F6627.INC>                                                      C:\MCC18\MPASM\P18CXXX.INC
                                             ENDIF                                                                          C:\MCC18\MPASM\P18CXXX.INC
                                             IFDEF __18F6722                                                                C:\MCC18\MPASM\P18CXXX.INC
                                                INCLUDE <P18F6722.INC>                                                      C:\MCC18\MPASM\P18CXXX.INC
                                             ENDIF                                                                          C:\MCC18\MPASM\P18CXXX.INC
                                             IFDEF __18F8627                                                                C:\MCC18\MPASM\P18CXXX.INC
                                                INCLUDE <P18F8627.INC>                                                      C:\MCC18\MPASM\P18CXXX.INC
                                             ENDIF                                                                          C:\MCC18\MPASM\P18CXXX.INC
                                             IFDEF __18F8722                                                                C:\MCC18\MPASM\P18CXXX.INC
                                                INCLUDE <P18F8722.INC>                                                      C:\MCC18\MPASM\P18CXXX.INC
                                             ENDIF                                                                          C:\MCC18\MPASM\P18CXXX.INC
                                             IFDEF __18F64J15                                                               C:\MCC18\MPASM\P18CXXX.INC
                                                INCLUDE <P18F64J15.INC>                                                     C:\MCC18\MPASM\P18CXXX.INC
                                             ENDIF                                                                          C:\MCC18\MPASM\P18CXXX.INC
                                             IFDEF __18F65J10                                                               C:\MCC18\MPASM\P18CXXX.INC
                                                INCLUDE <P18F65J10.INC>                                                     C:\MCC18\MPASM\P18CXXX.INC
                                             ENDIF                                                                          C:\MCC18\MPASM\P18CXXX.INC
                                             IFDEF __18F65J15                                                               C:\MCC18\MPASM\P18CXXX.INC
                                                INCLUDE <P18F65J15.INC>                                                     C:\MCC18\MPASM\P18CXXX.INC
                                             ENDIF                                                                          C:\MCC18\MPASM\P18CXXX.INC
                                             IFDEF __18F66J10                                                               C:\MCC18\MPASM\P18CXXX.INC
                                                INCLUDE <P18F66J10.INC>                                                     C:\MCC18\MPASM\P18CXXX.INC
                                             ENDIF                                                                          C:\MCC18\MPASM\P18CXXX.INC
                                             IFDEF __18F66J15                                                               C:\MCC18\MPASM\P18CXXX.INC
                                                INCLUDE <P18F66J15.INC>                                                     C:\MCC18\MPASM\P18CXXX.INC
                                             ENDIF                                                                          C:\MCC18\MPASM\P18CXXX.INC
                                             IFDEF __18F67J10                                                               C:\MCC18\MPASM\P18CXXX.INC
                                                INCLUDE <P18F67J10.INC>                                                     C:\MCC18\MPASM\P18CXXX.INC
                                             ENDIF                                                                          C:\MCC18\MPASM\P18CXXX.INC
                                             IFDEF __18F84J15                                                               C:\MCC18\MPASM\P18CXXX.INC
                                                INCLUDE <P18F84J15.INC>                                                     C:\MCC18\MPASM\P18CXXX.INC
                                             ENDIF                                                                          C:\MCC18\MPASM\P18CXXX.INC
                                             IFDEF __18F85J10                                                               C:\MCC18\MPASM\P18CXXX.INC
                                                INCLUDE <P18F85J10.INC>                                                     C:\MCC18\MPASM\P18CXXX.INC
                                             ENDIF                                                                          C:\MCC18\MPASM\P18CXXX.INC
                                             IFDEF __18F85J15                                                               C:\MCC18\MPASM\P18CXXX.INC
                                                INCLUDE <P18F85J15.INC>                                                     C:\MCC18\MPASM\P18CXXX.INC
                                             ENDIF                                                                          C:\MCC18\MPASM\P18CXXX.INC
                                             IFDEF __18F86J10                                                               C:\MCC18\MPASM\P18CXXX.INC
                                                INCLUDE <P18F86J10.INC>                                                     C:\MCC18\MPASM\P18CXXX.INC
                                             ENDIF                                                                          C:\MCC18\MPASM\P18CXXX.INC
                                             IFDEF __18F86J15                                                               C:\MCC18\MPASM\P18CXXX.INC
                                                INCLUDE <P18F86J15.INC>                                                     C:\MCC18\MPASM\P18CXXX.INC
                                             ENDIF                                                                          C:\MCC18\MPASM\P18CXXX.INC
                                             IFDEF __18F87J10                                                               C:\MCC18\MPASM\P18CXXX.INC
                                                INCLUDE <P18F87J10.INC>                                                     C:\MCC18\MPASM\P18CXXX.INC
                                             ENDIF                                                                          C:\MCC18\MPASM\P18CXXX.INC
                                             IFDEF __18F6527                                                                C:\MCC18\MPASM\P18CXXX.INC
                                                INCLUDE <P18F6527.INC>                                                      C:\MCC18\MPASM\P18CXXX.INC
                                             ENDIF                                                                          C:\MCC18\MPASM\P18CXXX.INC
                                             IFDEF __18F6622                                                                C:\MCC18\MPASM\P18CXXX.INC
                                                INCLUDE <P18F6622.INC>                                                      C:\MCC18\MPASM\P18CXXX.INC
                                             ENDIF                                                                          C:\MCC18\MPASM\P18CXXX.INC
                                             IFDEF __18F8527                                                                C:\MCC18\MPASM\P18CXXX.INC
                                                INCLUDE <P18F8527.INC>                                                      C:\MCC18\MPASM\P18CXXX.INC
                                             ENDIF                                                                          C:\MCC18\MPASM\P18CXXX.INC
                                             IFDEF __18F8622                                                                C:\MCC18\MPASM\P18CXXX.INC
                                                INCLUDE <P18F8622.INC>                                                      C:\MCC18\MPASM\P18CXXX.INC
                                             ENDIF                                                                          C:\MCC18\MPASM\P18CXXX.INC
                                             IFDEF __18F24J10                                                               C:\MCC18\MPASM\P18CXXX.INC
                                                INCLUDE <P18F24J10.INC>                                                     C:\MCC18\MPASM\P18CXXX.INC
                                             ENDIF                                                                          C:\MCC18\MPASM\P18CXXX.INC
                                             IFDEF __18F25J10                                                               C:\MCC18\MPASM\P18CXXX.INC
                                                INCLUDE <P18F25J10.INC>                                                     C:\MCC18\MPASM\P18CXXX.INC
                                             ENDIF                                                                          C:\MCC18\MPASM\P18CXXX.INC
                                             IFDEF __18F44J10                                                               C:\MCC18\MPASM\P18CXXX.INC
                                                INCLUDE <P18F44J10.INC>                                                     C:\MCC18\MPASM\P18CXXX.INC
                                             ENDIF                                                                          C:\MCC18\MPASM\P18CXXX.INC
                                             IFDEF __18F45J10                                                               C:\MCC18\MPASM\P18CXXX.INC
                                                INCLUDE <P18F45J10.INC>                                                     C:\MCC18\MPASM\P18CXXX.INC
                                             ENDIF                                                                          C:\MCC18\MPASM\P18CXXX.INC
                                             IFDEF __18F2221                                                                C:\MCC18\MPASM\P18CXXX.INC
                                                INCLUDE <P18F2221.INC>                                                      C:\MCC18\MPASM\P18CXXX.INC
                                             ENDIF                                                                          C:\MCC18\MPASM\P18CXXX.INC
                                             IFDEF __18F2321                                                                C:\MCC18\MPASM\P18CXXX.INC
                                                INCLUDE <P18F2321.INC>                                                      C:\MCC18\MPASM\P18CXXX.INC
                                             ENDIF                                                                          C:\MCC18\MPASM\P18CXXX.INC
                                             IFDEF __18F4221                                                                C:\MCC18\MPASM\P18CXXX.INC
                                                INCLUDE <P18F4221.INC>                                                      C:\MCC18\MPASM\P18CXXX.INC
                                             ENDIF                                                                          C:\MCC18\MPASM\P18CXXX.INC
                                             IFDEF __18F4321                                                                C:\MCC18\MPASM\P18CXXX.INC
                                                INCLUDE <P18F4321.INC>                                                      C:\MCC18\MPASM\P18CXXX.INC
                                             ENDIF                                                                          C:\MCC18\MPASM\P18CXXX.INC
                                             IFDEF __18F97J60                                                               C:\MCC18\MPASM\P18CXXX.INC
                                                INCLUDE <P18F97J60.INC>                                                     C:\MCC18\MPASM\P18CXXX.INC
                                             ENDIF                                                                          C:\MCC18\MPASM\P18CXXX.INC
                                             IFDEF __18F96J65                                                               C:\MCC18\MPASM\P18CXXX.INC
                                                INCLUDE <P18F96J65.INC>                                                     C:\MCC18\MPASM\P18CXXX.INC
                                             ENDIF                                                                          C:\MCC18\MPASM\P18CXXX.INC
                                             IFDEF __18F96J60                                                               C:\MCC18\MPASM\P18CXXX.INC
                                                INCLUDE <P18F96J60.INC>                                                     C:\MCC18\MPASM\P18CXXX.INC
                                             ENDIF                                                                          C:\MCC18\MPASM\P18CXXX.INC
                                             IFDEF __18F87J60                                                               C:\MCC18\MPASM\P18CXXX.INC
                                                INCLUDE <P18F87J60.INC>                                                     C:\MCC18\MPASM\P18CXXX.INC
                                             ENDIF                                                                          C:\MCC18\MPASM\P18CXXX.INC
                                             IFDEF __18F86J65                                                               C:\MCC18\MPASM\P18CXXX.INC
                                                INCLUDE <P18F86J65.INC>                                                     C:\MCC18\MPASM\P18CXXX.INC
                                             ENDIF                                                                          C:\MCC18\MPASM\P18CXXX.INC
                                             IFDEF __18F86J60                                                               C:\MCC18\MPASM\P18CXXX.INC
                                                INCLUDE <P18F86J60.INC>                                                     C:\MCC18\MPASM\P18CXXX.INC
                                             ENDIF                                                                          C:\MCC18\MPASM\P18CXXX.INC
                                             IFDEF __18F67J60                                                               C:\MCC18\MPASM\P18CXXX.INC
                                                INCLUDE <P18F67J60.INC>                                                     C:\MCC18\MPASM\P18CXXX.INC
                                             ENDIF                                                                          C:\MCC18\MPASM\P18CXXX.INC
                                             IFDEF __18F66J65                                                               C:\MCC18\MPASM\P18CXXX.INC
                                                INCLUDE <P18F66J65.INC>                                                     C:\MCC18\MPASM\P18CXXX.INC
                                             ENDIF                                                                          C:\MCC18\MPASM\P18CXXX.INC
                                             IFDEF __18F66J60                                                               C:\MCC18\MPASM\P18CXXX.INC
                                                INCLUDE <P18F66J60.INC>                                                     C:\MCC18\MPASM\P18CXXX.INC
                                             ENDIF                                                                          C:\MCC18\MPASM\P18CXXX.INC
                                             IFDEF __18F1331                                                                C:\MCC18\MPASM\P18CXXX.INC
                                                INCLUDE <P18F1331.INC>                                                      C:\MCC18\MPASM\P18CXXX.INC
                                             ENDIF                                                                          C:\MCC18\MPASM\P18CXXX.INC
                                             IFDEF __18F1330                                                                C:\MCC18\MPASM\P18CXXX.INC
                                                INCLUDE <P18F1330.INC>                                                      C:\MCC18\MPASM\P18CXXX.INC
                                             ENDIF                                                                          C:\MCC18\MPASM\P18CXXX.INC
                                             IFDEF __18F1231                                                                C:\MCC18\MPASM\P18CXXX.INC
                                                INCLUDE <P18F1231.INC>                                                      C:\MCC18\MPASM\P18CXXX.INC
                                             ENDIF                                                                          C:\MCC18\MPASM\P18CXXX.INC
                                             IFDEF __18F1230                                                                C:\MCC18\MPASM\P18CXXX.INC
                                                INCLUDE <P18F1230.INC>                                                      C:\MCC18\MPASM\P18CXXX.INC
                                             ENDIF                                                                          C:\MCC18\MPASM\P18CXXX.INC
                                             IFDEF __18F4450                                                                C:\MCC18\MPASM\P18CXXX.INC
                                                INCLUDE <P18F4450.INC>                                                      C:\MCC18\MPASM\P18CXXX.INC
                                             ENDIF                                                                          C:\MCC18\MPASM\P18CXXX.INC
                                             IFDEF __18F2450                                                                C:\MCC18\MPASM\P18CXXX.INC
                                                INCLUDE <P18F2450.INC>                                                      C:\MCC18\MPASM\P18CXXX.INC
                                             ENDIF                                                                          C:\MCC18\MPASM\P18CXXX.INC
                                             IFDEF __18LF4523                                                               C:\MCC18\MPASM\P18CXXX.INC
                                                INCLUDE <P18LF4523.INC>                                                     C:\MCC18\MPASM\P18CXXX.INC
                                             ENDIF                                                                          C:\MCC18\MPASM\P18CXXX.INC
                                             IFDEF __18LF4423                                                               C:\MCC18\MPASM\P18CXXX.INC
                                                INCLUDE <P18LF4423.INC>                                                     C:\MCC18\MPASM\P18CXXX.INC
                                             ENDIF                                                                          C:\MCC18\MPASM\P18CXXX.INC
                                             IFDEF __18LF2523                                                               C:\MCC18\MPASM\P18CXXX.INC
                                                INCLUDE <P18LF2523.INC>                                                     C:\MCC18\MPASM\P18CXXX.INC
                                             ENDIF                                                                          C:\MCC18\MPASM\P18CXXX.INC
                                             IFDEF __18LF2423                                                               C:\MCC18\MPASM\P18CXXX.INC
                                                INCLUDE <P18LF2423.INC>                                                     C:\MCC18\MPASM\P18CXXX.INC
                                             ENDIF                                                                          C:\MCC18\MPASM\P18CXXX.INC
                                           	                                                                               C:\MCC18\SRC\TRADIT~1\MATH\fxm1616s.asm
                                           	include <BARG.INC>		; BARG declarations                                        C:\MCC18\SRC\TRADIT~1\MATH\fxm1616s.asm
                                                                                                                           C:\MCC18\SRC\TRADIT~1\MATH\fxm1616s.asm
                                           	include <TEMPARG.INC>		; TEMPARG declarations                                  C:\MCC18\SRC\TRADIT~1\MATH\fxm1616s.asm
                                           ;	RCS Header $Id: cmath18.inc,v 1.2 2004/10/01 19:13:22 GrosbaJ Exp $           C:\MCC18\SRC\TRADIT~1\MATH\CMATH18.INC
                                                                                                                           C:\MCC18\SRC\TRADIT~1\MATH\CMATH18.INC
                                           ;	$Revision: 1.2 $                                                              C:\MCC18\SRC\TRADIT~1\MATH\CMATH18.INC
                                                                                                                           C:\MCC18\SRC\TRADIT~1\MATH\CMATH18.INC
                                               LIST                                                                        C:\MCC18\SRC\TRADIT~1\MATH\CMATH18.INC
                                           ; CMATH18.INC  v1.0  Microchip Technology, Inc. / F.J. Testa                    C:\MCC18\SRC\TRADIT~1\MATH\CMATH18.INC
                                               NOLIST                                                                      C:\MCC18\SRC\TRADIT~1\MATH\CMATH18.INC
                                                                                                                           C:\MCC18\SRC\TRADIT~1\MATH\CMATH18.INC
                                           ; This file should be included at the top of all math library routines except   C:\MCC18\SRC\TRADIT~1\MATH\CMATH18.INC
                                           ; CMATH18x.ASM and at the top of user code.                                     C:\MCC18\SRC\TRADIT~1\MATH\CMATH18.INC
                                                                                                                           C:\MCC18\SRC\TRADIT~1\MATH\CMATH18.INC
                                           ;       CMATH18 INCLUDE FILE                                                    C:\MCC18\SRC\TRADIT~1\MATH\CMATH18.INC
                                           ;	RCS Header $Id: temparg.asm,v 1.2 2004/10/01 19:13:23 GrosbaJ Exp $           C:\MCC18\SRC\TRADIT~1\MATH\temparg.asm
                                                                                                                           C:\MCC18\SRC\TRADIT~1\MATH\temparg.asm
                                           ;       CMATH18 DATA DEFINITION FILE                                            C:\MCC18\SRC\TRADIT~1\MATH\temparg.asm
                                                                                                                           C:\MCC18\SRC\TRADIT~1\MATH\temparg.asm
                                           ;******************************************************************************* C:\MCC18\SRC\TRADIT~1\MATH\temparg.asm
                                           ;   VARIABLE ALLOCATION - Core math library routines                            C:\MCC18\SRC\TRADIT~1\MATH\temparg.asm
                                           ;******************************************************************************* C:\MCC18\SRC\TRADIT~1\MATH\temparg.asm
                                                                                                                           C:\MCC18\SRC\TRADIT~1\MATH\temparg.asm
                                           MATH_DATA      UDATA_ACS                                                        C:\MCC18\SRC\TRADIT~1\MATH\temparg.asm
                                                                                                                           C:\MCC18\SRC\TRADIT~1\MATH\temparg.asm
                                           TEMPB3		RES 1                                                                   C:\MCC18\SRC\TRADIT~1\MATH\temparg.asm
                                           TEMPB2		RES 1                                                                   C:\MCC18\SRC\TRADIT~1\MATH\temparg.asm
                                           TEMPB1		RES 1                                                                   C:\MCC18\SRC\TRADIT~1\MATH\temparg.asm
                                           TEMP                                                                            C:\MCC18\SRC\TRADIT~1\MATH\temparg.asm
                                           TEMPB0		RES 1       ; temporary storage                                         C:\MCC18\SRC\TRADIT~1\MATH\temparg.asm
                                                                                                                           C:\MCC18\SRC\TRADIT~1\MATH\temparg.asm
                                                   GLOBAL  TEMPB3, TEMPB2, TEMPB1, TEMPB0, TEMP                            C:\MCC18\SRC\TRADIT~1\MATH\temparg.asm
                                           	                                                                               C:\MCC18\SRC\TRADIT~1\MATH\temparg.asm
                                                   END                                                                     C:\MCC18\SRC\TRADIT~1\MATH\temparg.asm
